
tester:     file format elf32-littlearm


Disassembly of section .text:

00050000 <_start>:
   50000:	4801      	ldr	r0, [pc, #4]	; (50008 <_start+0x8>)
   50002:	4902      	ldr	r1, [pc, #8]	; (5000c <_start+0xc>)
   50004:	4770      	bx	lr
   50006:	0000      	.short	0x0000
   50008:	00050011 	.word	0x00050011
   5000c:	2000fff8 	.word	0x2000fff8

00050010 <_start2>:
   50010:	b580      	push	{r7, lr}
   50012:	b082      	sub	sp, #8
   50014:	af00      	add	r7, sp, #0
   50016:	4b16      	ldr	r3, [pc, #88]	; (50070 <_start2+0x60>)
   50018:	607b      	str	r3, [r7, #4]
   5001a:	4b16      	ldr	r3, [pc, #88]	; (50074 <_start2+0x64>)
   5001c:	603b      	str	r3, [r7, #0]
   5001e:	687a      	ldr	r2, [r7, #4]
   50020:	683b      	ldr	r3, [r7, #0]
   50022:	429a      	cmp	r2, r3
   50024:	d00c      	beq.n	50040 <_start2+0x30>
   50026:	e007      	b.n	50038 <_start2+0x28>
   50028:	683b      	ldr	r3, [r7, #0]
   5002a:	1d1a      	adds	r2, r3, #4
   5002c:	603a      	str	r2, [r7, #0]
   5002e:	687a      	ldr	r2, [r7, #4]
   50030:	1d11      	adds	r1, r2, #4
   50032:	6079      	str	r1, [r7, #4]
   50034:	6812      	ldr	r2, [r2, #0]
   50036:	601a      	str	r2, [r3, #0]
   50038:	683b      	ldr	r3, [r7, #0]
   5003a:	4a0f      	ldr	r2, [pc, #60]	; (50078 <_start2+0x68>)
   5003c:	4293      	cmp	r3, r2
   5003e:	d3f3      	bcc.n	50028 <_start2+0x18>
   50040:	4b0e      	ldr	r3, [pc, #56]	; (5007c <_start2+0x6c>)
   50042:	603b      	str	r3, [r7, #0]
   50044:	e004      	b.n	50050 <_start2+0x40>
   50046:	683b      	ldr	r3, [r7, #0]
   50048:	1d1a      	adds	r2, r3, #4
   5004a:	603a      	str	r2, [r7, #0]
   5004c:	2200      	movs	r2, #0
   5004e:	601a      	str	r2, [r3, #0]
   50050:	683b      	ldr	r3, [r7, #0]
   50052:	4a0b      	ldr	r2, [pc, #44]	; (50080 <_start2+0x70>)
   50054:	4293      	cmp	r3, r2
   50056:	d3f6      	bcc.n	50046 <_start2+0x36>
   50058:	f001 fb82 	bl	51760 <__libc_init_array>
   5005c:	4809      	ldr	r0, [pc, #36]	; (50084 <_start2+0x74>)
   5005e:	f001 fe03 	bl	51c68 <iprintf>
   50062:	f000 f82b 	bl	500bc <main>
   50066:	bf00      	nop
   50068:	3708      	adds	r7, #8
   5006a:	46bd      	mov	sp, r7
   5006c:	bd80      	pop	{r7, pc}
   5006e:	bf00      	nop
   50070:	000549b8 	.word	0x000549b8
   50074:	20005000 	.word	0x20005000
   50078:	200050c4 	.word	0x200050c4
   5007c:	200050c4 	.word	0x200050c4
   50080:	200054e8 	.word	0x200054e8
   50084:	000547e4 	.word	0x000547e4

00050088 <_ZL6_Delayi>:
   50088:	b480      	push	{r7}
   5008a:	b085      	sub	sp, #20
   5008c:	af00      	add	r7, sp, #0
   5008e:	6078      	str	r0, [r7, #4]
   50090:	687b      	ldr	r3, [r7, #4]
   50092:	4a09      	ldr	r2, [pc, #36]	; (500b8 <_ZL6_Delayi+0x30>)
   50094:	fb02 f303 	mul.w	r3, r2, r3
   50098:	60fb      	str	r3, [r7, #12]
   5009a:	68fb      	ldr	r3, [r7, #12]
   5009c:	1e5a      	subs	r2, r3, #1
   5009e:	60fa      	str	r2, [r7, #12]
   500a0:	2b00      	cmp	r3, #0
   500a2:	bf14      	ite	ne
   500a4:	2301      	movne	r3, #1
   500a6:	2300      	moveq	r3, #0
   500a8:	b2db      	uxtb	r3, r3
   500aa:	2b00      	cmp	r3, #0
   500ac:	d1f5      	bne.n	5009a <_ZL6_Delayi+0x12>
   500ae:	3714      	adds	r7, #20
   500b0:	46bd      	mov	sp, r7
   500b2:	f85d 7b04 	ldr.w	r7, [sp], #4
   500b6:	4770      	bx	lr
   500b8:	000186a0 	.word	0x000186a0

000500bc <main>:
   500bc:	b580      	push	{r7, lr}
   500be:	af00      	add	r7, sp, #0
   500c0:	2000      	movs	r0, #0
   500c2:	490a      	ldr	r1, [pc, #40]	; (500ec <main+0x30>)
   500c4:	f000 fc3e 	bl	50944 <SEGGER_RTT_printf>
   500c8:	2000      	movs	r0, #0
   500ca:	4909      	ldr	r1, [pc, #36]	; (500f0 <main+0x34>)
   500cc:	2203      	movs	r2, #3
   500ce:	f000 f841 	bl	50154 <_write>
   500d2:	4808      	ldr	r0, [pc, #32]	; (500f4 <main+0x38>)
   500d4:	f001 fdc8 	bl	51c68 <iprintf>
   500d8:	4b07      	ldr	r3, [pc, #28]	; (500f8 <main+0x3c>)
   500da:	681b      	ldr	r3, [r3, #0]
   500dc:	689b      	ldr	r3, [r3, #8]
   500de:	4618      	mov	r0, r3
   500e0:	f001 f908 	bl	512f4 <fflush>
   500e4:	2064      	movs	r0, #100	; 0x64
   500e6:	f7ff ffcf 	bl	50088 <_ZL6_Delayi>
   500ea:	e7e9      	b.n	500c0 <main+0x4>
   500ec:	000547c4 	.word	0x000547c4
   500f0:	000547d4 	.word	0x000547d4
   500f4:	000547d8 	.word	0x000547d8
   500f8:	20005060 	.word	0x20005060

000500fc <_sbrk>:
   500fc:	b480      	push	{r7}
   500fe:	b085      	sub	sp, #20
   50100:	af00      	add	r7, sp, #0
   50102:	6078      	str	r0, [r7, #4]
   50104:	4b0b      	ldr	r3, [pc, #44]	; (50134 <_sbrk+0x38>)
   50106:	681b      	ldr	r3, [r3, #0]
   50108:	2b00      	cmp	r3, #0
   5010a:	d102      	bne.n	50112 <_sbrk+0x16>
   5010c:	4b09      	ldr	r3, [pc, #36]	; (50134 <_sbrk+0x38>)
   5010e:	4a0a      	ldr	r2, [pc, #40]	; (50138 <_sbrk+0x3c>)
   50110:	601a      	str	r2, [r3, #0]
   50112:	4b08      	ldr	r3, [pc, #32]	; (50134 <_sbrk+0x38>)
   50114:	681b      	ldr	r3, [r3, #0]
   50116:	60fb      	str	r3, [r7, #12]
   50118:	4b06      	ldr	r3, [pc, #24]	; (50134 <_sbrk+0x38>)
   5011a:	681a      	ldr	r2, [r3, #0]
   5011c:	687b      	ldr	r3, [r7, #4]
   5011e:	4413      	add	r3, r2
   50120:	4a04      	ldr	r2, [pc, #16]	; (50134 <_sbrk+0x38>)
   50122:	6013      	str	r3, [r2, #0]
   50124:	68fb      	ldr	r3, [r7, #12]
   50126:	4618      	mov	r0, r3
   50128:	3714      	adds	r7, #20
   5012a:	46bd      	mov	sp, r7
   5012c:	f85d 7b04 	ldr.w	r7, [sp], #4
   50130:	4770      	bx	lr
   50132:	bf00      	nop
   50134:	200050c4 	.word	0x200050c4
   50138:	200054e8 	.word	0x200054e8

0005013c <_isatty>:
   5013c:	b480      	push	{r7}
   5013e:	b083      	sub	sp, #12
   50140:	af00      	add	r7, sp, #0
   50142:	6078      	str	r0, [r7, #4]
   50144:	2301      	movs	r3, #1
   50146:	4618      	mov	r0, r3
   50148:	370c      	adds	r7, #12
   5014a:	46bd      	mov	sp, r7
   5014c:	f85d 7b04 	ldr.w	r7, [sp], #4
   50150:	4770      	bx	lr
   50152:	bf00      	nop

00050154 <_write>:
   50154:	b580      	push	{r7, lr}
   50156:	b084      	sub	sp, #16
   50158:	af00      	add	r7, sp, #0
   5015a:	60f8      	str	r0, [r7, #12]
   5015c:	60b9      	str	r1, [r7, #8]
   5015e:	607a      	str	r2, [r7, #4]
   50160:	68fb      	ldr	r3, [r7, #12]
   50162:	4618      	mov	r0, r3
   50164:	68b9      	ldr	r1, [r7, #8]
   50166:	687a      	ldr	r2, [r7, #4]
   50168:	f000 f86e 	bl	50248 <k_write>
   5016c:	687b      	ldr	r3, [r7, #4]
   5016e:	4618      	mov	r0, r3
   50170:	3710      	adds	r7, #16
   50172:	46bd      	mov	sp, r7
   50174:	bd80      	pop	{r7, pc}
   50176:	bf00      	nop

00050178 <_close>:
   50178:	b480      	push	{r7}
   5017a:	b083      	sub	sp, #12
   5017c:	af00      	add	r7, sp, #0
   5017e:	6078      	str	r0, [r7, #4]
   50180:	f04f 33ff 	mov.w	r3, #4294967295
   50184:	4618      	mov	r0, r3
   50186:	370c      	adds	r7, #12
   50188:	46bd      	mov	sp, r7
   5018a:	f85d 7b04 	ldr.w	r7, [sp], #4
   5018e:	4770      	bx	lr

00050190 <_fstat>:
   50190:	b480      	push	{r7}
   50192:	b083      	sub	sp, #12
   50194:	af00      	add	r7, sp, #0
   50196:	6078      	str	r0, [r7, #4]
   50198:	6039      	str	r1, [r7, #0]
   5019a:	f04f 33ff 	mov.w	r3, #4294967295
   5019e:	4618      	mov	r0, r3
   501a0:	370c      	adds	r7, #12
   501a2:	46bd      	mov	sp, r7
   501a4:	f85d 7b04 	ldr.w	r7, [sp], #4
   501a8:	4770      	bx	lr
   501aa:	bf00      	nop

000501ac <_lseek>:
   501ac:	b480      	push	{r7}
   501ae:	b085      	sub	sp, #20
   501b0:	af00      	add	r7, sp, #0
   501b2:	60f8      	str	r0, [r7, #12]
   501b4:	60b9      	str	r1, [r7, #8]
   501b6:	607a      	str	r2, [r7, #4]
   501b8:	f04f 33ff 	mov.w	r3, #4294967295
   501bc:	4618      	mov	r0, r3
   501be:	3714      	adds	r7, #20
   501c0:	46bd      	mov	sp, r7
   501c2:	f85d 7b04 	ldr.w	r7, [sp], #4
   501c6:	4770      	bx	lr

000501c8 <_read>:
   501c8:	b580      	push	{r7, lr}
   501ca:	b084      	sub	sp, #16
   501cc:	af00      	add	r7, sp, #0
   501ce:	60f8      	str	r0, [r7, #12]
   501d0:	60b9      	str	r1, [r7, #8]
   501d2:	607a      	str	r2, [r7, #4]
   501d4:	68fb      	ldr	r3, [r7, #12]
   501d6:	4618      	mov	r0, r3
   501d8:	68b9      	ldr	r1, [r7, #8]
   501da:	687a      	ldr	r2, [r7, #4]
   501dc:	f000 f842 	bl	50264 <k_read>
   501e0:	4603      	mov	r3, r0
   501e2:	4618      	mov	r0, r3
   501e4:	3710      	adds	r7, #16
   501e6:	46bd      	mov	sp, r7
   501e8:	bd80      	pop	{r7, pc}
   501ea:	bf00      	nop

000501ec <_exit>:
   501ec:	b480      	push	{r7}
   501ee:	af00      	add	r7, sp, #0
   501f0:	46bd      	mov	sp, r7
   501f2:	f85d 7b04 	ldr.w	r7, [sp], #4
   501f6:	4770      	bx	lr

000501f8 <abort>:
   501f8:	b480      	push	{r7}
   501fa:	af00      	add	r7, sp, #0
   501fc:	e7fe      	b.n	501fc <abort+0x4>
   501fe:	bf00      	nop

00050200 <_getpid>:
   50200:	b480      	push	{r7}
   50202:	af00      	add	r7, sp, #0
   50204:	2300      	movs	r3, #0
   50206:	4618      	mov	r0, r3
   50208:	46bd      	mov	sp, r7
   5020a:	f85d 7b04 	ldr.w	r7, [sp], #4
   5020e:	4770      	bx	lr

00050210 <_kill>:
   50210:	b480      	push	{r7}
   50212:	b083      	sub	sp, #12
   50214:	af00      	add	r7, sp, #0
   50216:	6078      	str	r0, [r7, #4]
   50218:	6039      	str	r1, [r7, #0]
   5021a:	f04f 33ff 	mov.w	r3, #4294967295
   5021e:	4618      	mov	r0, r3
   50220:	370c      	adds	r7, #12
   50222:	46bd      	mov	sp, r7
   50224:	f85d 7b04 	ldr.w	r7, [sp], #4
   50228:	4770      	bx	lr
   5022a:	bf00      	nop

0005022c <_init>:
   5022c:	b480      	push	{r7}
   5022e:	af00      	add	r7, sp, #0
   50230:	46bd      	mov	sp, r7
   50232:	f85d 7b04 	ldr.w	r7, [sp], #4
   50236:	4770      	bx	lr

00050238 <k_get_kernel_version>:
   50238:	e92d 0ff0 	stmdb	sp!, {r4, r5, r6, r7, r8, r9, sl, fp}
   5023c:	df01      	svc	1
   5023e:	e8bd 0ff0 	ldmia.w	sp!, {r4, r5, r6, r7, r8, r9, sl, fp}
   50242:	4770      	bx	lr
   50244:	4618      	mov	r0, r3
   50246:	bf00      	nop

00050248 <k_write>:
   50248:	e92d 0ff0 	stmdb	sp!, {r4, r5, r6, r7, r8, r9, sl, fp}
   5024c:	df02      	svc	2
   5024e:	e8bd 0ff0 	ldmia.w	sp!, {r4, r5, r6, r7, r8, r9, sl, fp}
   50252:	4770      	bx	lr
   50254:	4618      	mov	r0, r3
   50256:	bf00      	nop

00050258 <k_yield>:
   50258:	e92d 0ff0 	stmdb	sp!, {r4, r5, r6, r7, r8, r9, sl, fp}
   5025c:	df03      	svc	3
   5025e:	e8bd 0ff0 	ldmia.w	sp!, {r4, r5, r6, r7, r8, r9, sl, fp}
   50262:	4770      	bx	lr

00050264 <k_read>:
   50264:	e92d 0ff0 	stmdb	sp!, {r4, r5, r6, r7, r8, r9, sl, fp}
   50268:	df04      	svc	4
   5026a:	e8bd 0ff0 	ldmia.w	sp!, {r4, r5, r6, r7, r8, r9, sl, fp}
   5026e:	4770      	bx	lr
   50270:	4618      	mov	r0, r3
   50272:	bf00      	nop

00050274 <k_read_async>:
   50274:	e92d 0ff0 	stmdb	sp!, {r4, r5, r6, r7, r8, r9, sl, fp}
   50278:	df05      	svc	5
   5027a:	e8bd 0ff0 	ldmia.w	sp!, {r4, r5, r6, r7, r8, r9, sl, fp}
   5027e:	4770      	bx	lr
   50280:	4618      	mov	r0, r3
   50282:	bf00      	nop

00050284 <k_run_callback>:
   50284:	e92d 0ff0 	stmdb	sp!, {r4, r5, r6, r7, r8, r9, sl, fp}
   50288:	df06      	svc	6
   5028a:	e8bd 0ff0 	ldmia.w	sp!, {r4, r5, r6, r7, r8, r9, sl, fp}
   5028e:	4770      	bx	lr
   50290:	4618      	mov	r0, r3
   50292:	bf00      	nop

00050294 <k_wait_callback>:
   50294:	e92d 0ff0 	stmdb	sp!, {r4, r5, r6, r7, r8, r9, sl, fp}
   50298:	df07      	svc	7
   5029a:	e8bd 0ff0 	ldmia.w	sp!, {r4, r5, r6, r7, r8, r9, sl, fp}
   5029e:	4770      	bx	lr

000502a0 <_StoreChar>:
   502a0:	b580      	push	{r7, lr}
   502a2:	b084      	sub	sp, #16
   502a4:	af00      	add	r7, sp, #0
   502a6:	6078      	str	r0, [r7, #4]
   502a8:	460b      	mov	r3, r1
   502aa:	70fb      	strb	r3, [r7, #3]
   502ac:	687b      	ldr	r3, [r7, #4]
   502ae:	689b      	ldr	r3, [r3, #8]
   502b0:	60fb      	str	r3, [r7, #12]
   502b2:	68fb      	ldr	r3, [r7, #12]
   502b4:	1c5a      	adds	r2, r3, #1
   502b6:	687b      	ldr	r3, [r7, #4]
   502b8:	685b      	ldr	r3, [r3, #4]
   502ba:	429a      	cmp	r2, r3
   502bc:	dc0e      	bgt.n	502dc <_StoreChar+0x3c>
   502be:	687b      	ldr	r3, [r7, #4]
   502c0:	681a      	ldr	r2, [r3, #0]
   502c2:	68fb      	ldr	r3, [r7, #12]
   502c4:	4413      	add	r3, r2
   502c6:	78fa      	ldrb	r2, [r7, #3]
   502c8:	701a      	strb	r2, [r3, #0]
   502ca:	68fb      	ldr	r3, [r7, #12]
   502cc:	1c5a      	adds	r2, r3, #1
   502ce:	687b      	ldr	r3, [r7, #4]
   502d0:	609a      	str	r2, [r3, #8]
   502d2:	687b      	ldr	r3, [r7, #4]
   502d4:	68db      	ldr	r3, [r3, #12]
   502d6:	1c5a      	adds	r2, r3, #1
   502d8:	687b      	ldr	r3, [r7, #4]
   502da:	60da      	str	r2, [r3, #12]
   502dc:	687b      	ldr	r3, [r7, #4]
   502de:	689a      	ldr	r2, [r3, #8]
   502e0:	687b      	ldr	r3, [r7, #4]
   502e2:	685b      	ldr	r3, [r3, #4]
   502e4:	429a      	cmp	r2, r3
   502e6:	d117      	bne.n	50318 <_StoreChar+0x78>
   502e8:	687b      	ldr	r3, [r7, #4]
   502ea:	6919      	ldr	r1, [r3, #16]
   502ec:	687b      	ldr	r3, [r7, #4]
   502ee:	681a      	ldr	r2, [r3, #0]
   502f0:	687b      	ldr	r3, [r7, #4]
   502f2:	689b      	ldr	r3, [r3, #8]
   502f4:	4608      	mov	r0, r1
   502f6:	4611      	mov	r1, r2
   502f8:	461a      	mov	r2, r3
   502fa:	f000 fc07 	bl	50b0c <SEGGER_RTT_Write>
   502fe:	4602      	mov	r2, r0
   50300:	687b      	ldr	r3, [r7, #4]
   50302:	689b      	ldr	r3, [r3, #8]
   50304:	429a      	cmp	r2, r3
   50306:	d004      	beq.n	50312 <_StoreChar+0x72>
   50308:	687b      	ldr	r3, [r7, #4]
   5030a:	f04f 32ff 	mov.w	r2, #4294967295
   5030e:	60da      	str	r2, [r3, #12]
   50310:	e002      	b.n	50318 <_StoreChar+0x78>
   50312:	687b      	ldr	r3, [r7, #4]
   50314:	2200      	movs	r2, #0
   50316:	609a      	str	r2, [r3, #8]
   50318:	3710      	adds	r7, #16
   5031a:	46bd      	mov	sp, r7
   5031c:	bd80      	pop	{r7, pc}
   5031e:	bf00      	nop

00050320 <_PrintUnsigned>:
   50320:	b580      	push	{r7, lr}
   50322:	b08a      	sub	sp, #40	; 0x28
   50324:	af00      	add	r7, sp, #0
   50326:	60f8      	str	r0, [r7, #12]
   50328:	60b9      	str	r1, [r7, #8]
   5032a:	607a      	str	r2, [r7, #4]
   5032c:	603b      	str	r3, [r7, #0]
   5032e:	2301      	movs	r3, #1
   50330:	627b      	str	r3, [r7, #36]	; 0x24
   50332:	68bb      	ldr	r3, [r7, #8]
   50334:	623b      	str	r3, [r7, #32]
   50336:	2301      	movs	r3, #1
   50338:	61fb      	str	r3, [r7, #28]
   5033a:	e007      	b.n	5034c <_PrintUnsigned+0x2c>
   5033c:	6a3a      	ldr	r2, [r7, #32]
   5033e:	687b      	ldr	r3, [r7, #4]
   50340:	fbb2 f3f3 	udiv	r3, r2, r3
   50344:	623b      	str	r3, [r7, #32]
   50346:	69fb      	ldr	r3, [r7, #28]
   50348:	3301      	adds	r3, #1
   5034a:	61fb      	str	r3, [r7, #28]
   5034c:	6a3a      	ldr	r2, [r7, #32]
   5034e:	687b      	ldr	r3, [r7, #4]
   50350:	429a      	cmp	r2, r3
   50352:	d2f3      	bcs.n	5033c <_PrintUnsigned+0x1c>
   50354:	683a      	ldr	r2, [r7, #0]
   50356:	69fb      	ldr	r3, [r7, #28]
   50358:	429a      	cmp	r2, r3
   5035a:	d901      	bls.n	50360 <_PrintUnsigned+0x40>
   5035c:	683b      	ldr	r3, [r7, #0]
   5035e:	61fb      	str	r3, [r7, #28]
   50360:	6b7b      	ldr	r3, [r7, #52]	; 0x34
   50362:	f003 0301 	and.w	r3, r3, #1
   50366:	2b00      	cmp	r3, #0
   50368:	d123      	bne.n	503b2 <_PrintUnsigned+0x92>
   5036a:	6b3b      	ldr	r3, [r7, #48]	; 0x30
   5036c:	2b00      	cmp	r3, #0
   5036e:	d020      	beq.n	503b2 <_PrintUnsigned+0x92>
   50370:	6b7b      	ldr	r3, [r7, #52]	; 0x34
   50372:	f003 0302 	and.w	r3, r3, #2
   50376:	2b00      	cmp	r3, #0
   50378:	d005      	beq.n	50386 <_PrintUnsigned+0x66>
   5037a:	683b      	ldr	r3, [r7, #0]
   5037c:	2b00      	cmp	r3, #0
   5037e:	d102      	bne.n	50386 <_PrintUnsigned+0x66>
   50380:	2330      	movs	r3, #48	; 0x30
   50382:	76fb      	strb	r3, [r7, #27]
   50384:	e001      	b.n	5038a <_PrintUnsigned+0x6a>
   50386:	2320      	movs	r3, #32
   50388:	76fb      	strb	r3, [r7, #27]
   5038a:	e009      	b.n	503a0 <_PrintUnsigned+0x80>
   5038c:	7efb      	ldrb	r3, [r7, #27]
   5038e:	68f8      	ldr	r0, [r7, #12]
   50390:	4619      	mov	r1, r3
   50392:	f7ff ff85 	bl	502a0 <_StoreChar>
   50396:	68fb      	ldr	r3, [r7, #12]
   50398:	68db      	ldr	r3, [r3, #12]
   5039a:	2b00      	cmp	r3, #0
   5039c:	da00      	bge.n	503a0 <_PrintUnsigned+0x80>
   5039e:	e060      	b.n	50462 <_PrintUnsigned+0x142>
   503a0:	6b3b      	ldr	r3, [r7, #48]	; 0x30
   503a2:	2b00      	cmp	r3, #0
   503a4:	d005      	beq.n	503b2 <_PrintUnsigned+0x92>
   503a6:	6b3b      	ldr	r3, [r7, #48]	; 0x30
   503a8:	1e5a      	subs	r2, r3, #1
   503aa:	633a      	str	r2, [r7, #48]	; 0x30
   503ac:	69fa      	ldr	r2, [r7, #28]
   503ae:	4293      	cmp	r3, r2
   503b0:	d8ec      	bhi.n	5038c <_PrintUnsigned+0x6c>
   503b2:	e004      	b.n	503be <_PrintUnsigned+0x9e>
   503b4:	6a7b      	ldr	r3, [r7, #36]	; 0x24
   503b6:	687a      	ldr	r2, [r7, #4]
   503b8:	fb02 f303 	mul.w	r3, r2, r3
   503bc:	627b      	str	r3, [r7, #36]	; 0x24
   503be:	68ba      	ldr	r2, [r7, #8]
   503c0:	6a7b      	ldr	r3, [r7, #36]	; 0x24
   503c2:	fbb2 f2f3 	udiv	r2, r2, r3
   503c6:	687b      	ldr	r3, [r7, #4]
   503c8:	429a      	cmp	r2, r3
   503ca:	bf2c      	ite	cs
   503cc:	2301      	movcs	r3, #1
   503ce:	2300      	movcc	r3, #0
   503d0:	b2da      	uxtb	r2, r3
   503d2:	683b      	ldr	r3, [r7, #0]
   503d4:	1e59      	subs	r1, r3, #1
   503d6:	6039      	str	r1, [r7, #0]
   503d8:	2b01      	cmp	r3, #1
   503da:	bfcc      	ite	gt
   503dc:	2301      	movgt	r3, #1
   503de:	2300      	movle	r3, #0
   503e0:	b2db      	uxtb	r3, r3
   503e2:	4313      	orrs	r3, r2
   503e4:	b2db      	uxtb	r3, r3
   503e6:	2b00      	cmp	r3, #0
   503e8:	d1e4      	bne.n	503b4 <_PrintUnsigned+0x94>
   503ea:	68ba      	ldr	r2, [r7, #8]
   503ec:	6a7b      	ldr	r3, [r7, #36]	; 0x24
   503ee:	fbb2 f3f3 	udiv	r3, r2, r3
   503f2:	617b      	str	r3, [r7, #20]
   503f4:	697b      	ldr	r3, [r7, #20]
   503f6:	6a7a      	ldr	r2, [r7, #36]	; 0x24
   503f8:	fb02 f303 	mul.w	r3, r2, r3
   503fc:	68ba      	ldr	r2, [r7, #8]
   503fe:	1ad3      	subs	r3, r2, r3
   50400:	60bb      	str	r3, [r7, #8]
   50402:	4a19      	ldr	r2, [pc, #100]	; (50468 <_PrintUnsigned+0x148>)
   50404:	697b      	ldr	r3, [r7, #20]
   50406:	4413      	add	r3, r2
   50408:	781b      	ldrb	r3, [r3, #0]
   5040a:	68f8      	ldr	r0, [r7, #12]
   5040c:	4619      	mov	r1, r3
   5040e:	f7ff ff47 	bl	502a0 <_StoreChar>
   50412:	68fb      	ldr	r3, [r7, #12]
   50414:	68db      	ldr	r3, [r3, #12]
   50416:	2b00      	cmp	r3, #0
   50418:	da00      	bge.n	5041c <_PrintUnsigned+0xfc>
   5041a:	e007      	b.n	5042c <_PrintUnsigned+0x10c>
   5041c:	6a7a      	ldr	r2, [r7, #36]	; 0x24
   5041e:	687b      	ldr	r3, [r7, #4]
   50420:	fbb2 f3f3 	udiv	r3, r2, r3
   50424:	627b      	str	r3, [r7, #36]	; 0x24
   50426:	6a7b      	ldr	r3, [r7, #36]	; 0x24
   50428:	2b00      	cmp	r3, #0
   5042a:	d1de      	bne.n	503ea <_PrintUnsigned+0xca>
   5042c:	6b7b      	ldr	r3, [r7, #52]	; 0x34
   5042e:	f003 0301 	and.w	r3, r3, #1
   50432:	2b00      	cmp	r3, #0
   50434:	d015      	beq.n	50462 <_PrintUnsigned+0x142>
   50436:	6b3b      	ldr	r3, [r7, #48]	; 0x30
   50438:	2b00      	cmp	r3, #0
   5043a:	d012      	beq.n	50462 <_PrintUnsigned+0x142>
   5043c:	e008      	b.n	50450 <_PrintUnsigned+0x130>
   5043e:	68f8      	ldr	r0, [r7, #12]
   50440:	2120      	movs	r1, #32
   50442:	f7ff ff2d 	bl	502a0 <_StoreChar>
   50446:	68fb      	ldr	r3, [r7, #12]
   50448:	68db      	ldr	r3, [r3, #12]
   5044a:	2b00      	cmp	r3, #0
   5044c:	da00      	bge.n	50450 <_PrintUnsigned+0x130>
   5044e:	e008      	b.n	50462 <_PrintUnsigned+0x142>
   50450:	6b3b      	ldr	r3, [r7, #48]	; 0x30
   50452:	2b00      	cmp	r3, #0
   50454:	d005      	beq.n	50462 <_PrintUnsigned+0x142>
   50456:	6b3b      	ldr	r3, [r7, #48]	; 0x30
   50458:	1e5a      	subs	r2, r3, #1
   5045a:	633a      	str	r2, [r7, #48]	; 0x30
   5045c:	69fa      	ldr	r2, [r7, #28]
   5045e:	4293      	cmp	r3, r2
   50460:	d8ed      	bhi.n	5043e <_PrintUnsigned+0x11e>
   50462:	3728      	adds	r7, #40	; 0x28
   50464:	46bd      	mov	sp, r7
   50466:	bd80      	pop	{r7, pc}
   50468:	000547fc 	.word	0x000547fc

0005046c <_PrintInt>:
   5046c:	b590      	push	{r4, r7, lr}
   5046e:	b089      	sub	sp, #36	; 0x24
   50470:	af02      	add	r7, sp, #8
   50472:	60f8      	str	r0, [r7, #12]
   50474:	60b9      	str	r1, [r7, #8]
   50476:	607a      	str	r2, [r7, #4]
   50478:	603b      	str	r3, [r7, #0]
   5047a:	68bb      	ldr	r3, [r7, #8]
   5047c:	2b00      	cmp	r3, #0
   5047e:	bfb8      	it	lt
   50480:	425b      	neglt	r3, r3
   50482:	613b      	str	r3, [r7, #16]
   50484:	2301      	movs	r3, #1
   50486:	617b      	str	r3, [r7, #20]
   50488:	e007      	b.n	5049a <_PrintInt+0x2e>
   5048a:	693a      	ldr	r2, [r7, #16]
   5048c:	687b      	ldr	r3, [r7, #4]
   5048e:	fbb2 f3f3 	udiv	r3, r2, r3
   50492:	613b      	str	r3, [r7, #16]
   50494:	697b      	ldr	r3, [r7, #20]
   50496:	3301      	adds	r3, #1
   50498:	617b      	str	r3, [r7, #20]
   5049a:	693a      	ldr	r2, [r7, #16]
   5049c:	687b      	ldr	r3, [r7, #4]
   5049e:	429a      	cmp	r2, r3
   504a0:	d2f3      	bcs.n	5048a <_PrintInt+0x1e>
   504a2:	683a      	ldr	r2, [r7, #0]
   504a4:	697b      	ldr	r3, [r7, #20]
   504a6:	429a      	cmp	r2, r3
   504a8:	d901      	bls.n	504ae <_PrintInt+0x42>
   504aa:	683b      	ldr	r3, [r7, #0]
   504ac:	617b      	str	r3, [r7, #20]
   504ae:	6abb      	ldr	r3, [r7, #40]	; 0x28
   504b0:	2b00      	cmp	r3, #0
   504b2:	d00a      	beq.n	504ca <_PrintInt+0x5e>
   504b4:	68bb      	ldr	r3, [r7, #8]
   504b6:	2b00      	cmp	r3, #0
   504b8:	db04      	blt.n	504c4 <_PrintInt+0x58>
   504ba:	6afb      	ldr	r3, [r7, #44]	; 0x2c
   504bc:	f003 0304 	and.w	r3, r3, #4
   504c0:	2b00      	cmp	r3, #0
   504c2:	d002      	beq.n	504ca <_PrintInt+0x5e>
   504c4:	6abb      	ldr	r3, [r7, #40]	; 0x28
   504c6:	3b01      	subs	r3, #1
   504c8:	62bb      	str	r3, [r7, #40]	; 0x28
   504ca:	6afb      	ldr	r3, [r7, #44]	; 0x2c
   504cc:	f003 0302 	and.w	r3, r3, #2
   504d0:	2b00      	cmp	r3, #0
   504d2:	d002      	beq.n	504da <_PrintInt+0x6e>
   504d4:	683b      	ldr	r3, [r7, #0]
   504d6:	2b00      	cmp	r3, #0
   504d8:	d01a      	beq.n	50510 <_PrintInt+0xa4>
   504da:	6afb      	ldr	r3, [r7, #44]	; 0x2c
   504dc:	f003 0301 	and.w	r3, r3, #1
   504e0:	2b00      	cmp	r3, #0
   504e2:	d115      	bne.n	50510 <_PrintInt+0xa4>
   504e4:	6abb      	ldr	r3, [r7, #40]	; 0x28
   504e6:	2b00      	cmp	r3, #0
   504e8:	d012      	beq.n	50510 <_PrintInt+0xa4>
   504ea:	e008      	b.n	504fe <_PrintInt+0x92>
   504ec:	68f8      	ldr	r0, [r7, #12]
   504ee:	2120      	movs	r1, #32
   504f0:	f7ff fed6 	bl	502a0 <_StoreChar>
   504f4:	68fb      	ldr	r3, [r7, #12]
   504f6:	68db      	ldr	r3, [r3, #12]
   504f8:	2b00      	cmp	r3, #0
   504fa:	da00      	bge.n	504fe <_PrintInt+0x92>
   504fc:	e054      	b.n	505a8 <_PrintInt+0x13c>
   504fe:	6abb      	ldr	r3, [r7, #40]	; 0x28
   50500:	2b00      	cmp	r3, #0
   50502:	d005      	beq.n	50510 <_PrintInt+0xa4>
   50504:	6abb      	ldr	r3, [r7, #40]	; 0x28
   50506:	1e5a      	subs	r2, r3, #1
   50508:	62ba      	str	r2, [r7, #40]	; 0x28
   5050a:	697a      	ldr	r2, [r7, #20]
   5050c:	4293      	cmp	r3, r2
   5050e:	d8ed      	bhi.n	504ec <_PrintInt+0x80>
   50510:	68bb      	ldr	r3, [r7, #8]
   50512:	2b00      	cmp	r3, #0
   50514:	da0b      	bge.n	5052e <_PrintInt+0xc2>
   50516:	68bb      	ldr	r3, [r7, #8]
   50518:	425b      	negs	r3, r3
   5051a:	60bb      	str	r3, [r7, #8]
   5051c:	68f8      	ldr	r0, [r7, #12]
   5051e:	212d      	movs	r1, #45	; 0x2d
   50520:	f7ff febe 	bl	502a0 <_StoreChar>
   50524:	68fb      	ldr	r3, [r7, #12]
   50526:	68db      	ldr	r3, [r3, #12]
   50528:	2b00      	cmp	r3, #0
   5052a:	da0e      	bge.n	5054a <_PrintInt+0xde>
   5052c:	e03c      	b.n	505a8 <_PrintInt+0x13c>
   5052e:	6afb      	ldr	r3, [r7, #44]	; 0x2c
   50530:	f003 0304 	and.w	r3, r3, #4
   50534:	2b00      	cmp	r3, #0
   50536:	d008      	beq.n	5054a <_PrintInt+0xde>
   50538:	68f8      	ldr	r0, [r7, #12]
   5053a:	212b      	movs	r1, #43	; 0x2b
   5053c:	f7ff feb0 	bl	502a0 <_StoreChar>
   50540:	68fb      	ldr	r3, [r7, #12]
   50542:	68db      	ldr	r3, [r3, #12]
   50544:	2b00      	cmp	r3, #0
   50546:	da00      	bge.n	5054a <_PrintInt+0xde>
   50548:	e02e      	b.n	505a8 <_PrintInt+0x13c>
   5054a:	6afb      	ldr	r3, [r7, #44]	; 0x2c
   5054c:	f003 0302 	and.w	r3, r3, #2
   50550:	2b00      	cmp	r3, #0
   50552:	d01d      	beq.n	50590 <_PrintInt+0x124>
   50554:	6afb      	ldr	r3, [r7, #44]	; 0x2c
   50556:	f003 0301 	and.w	r3, r3, #1
   5055a:	2b00      	cmp	r3, #0
   5055c:	d118      	bne.n	50590 <_PrintInt+0x124>
   5055e:	683b      	ldr	r3, [r7, #0]
   50560:	2b00      	cmp	r3, #0
   50562:	d115      	bne.n	50590 <_PrintInt+0x124>
   50564:	6abb      	ldr	r3, [r7, #40]	; 0x28
   50566:	2b00      	cmp	r3, #0
   50568:	d012      	beq.n	50590 <_PrintInt+0x124>
   5056a:	e008      	b.n	5057e <_PrintInt+0x112>
   5056c:	68f8      	ldr	r0, [r7, #12]
   5056e:	2130      	movs	r1, #48	; 0x30
   50570:	f7ff fe96 	bl	502a0 <_StoreChar>
   50574:	68fb      	ldr	r3, [r7, #12]
   50576:	68db      	ldr	r3, [r3, #12]
   50578:	2b00      	cmp	r3, #0
   5057a:	da00      	bge.n	5057e <_PrintInt+0x112>
   5057c:	e014      	b.n	505a8 <_PrintInt+0x13c>
   5057e:	6abb      	ldr	r3, [r7, #40]	; 0x28
   50580:	2b00      	cmp	r3, #0
   50582:	d005      	beq.n	50590 <_PrintInt+0x124>
   50584:	6abb      	ldr	r3, [r7, #40]	; 0x28
   50586:	1e5a      	subs	r2, r3, #1
   50588:	62ba      	str	r2, [r7, #40]	; 0x28
   5058a:	697a      	ldr	r2, [r7, #20]
   5058c:	4293      	cmp	r3, r2
   5058e:	d8ed      	bhi.n	5056c <_PrintInt+0x100>
   50590:	68ba      	ldr	r2, [r7, #8]
   50592:	683c      	ldr	r4, [r7, #0]
   50594:	6abb      	ldr	r3, [r7, #40]	; 0x28
   50596:	9300      	str	r3, [sp, #0]
   50598:	6afb      	ldr	r3, [r7, #44]	; 0x2c
   5059a:	9301      	str	r3, [sp, #4]
   5059c:	68f8      	ldr	r0, [r7, #12]
   5059e:	4611      	mov	r1, r2
   505a0:	687a      	ldr	r2, [r7, #4]
   505a2:	4623      	mov	r3, r4
   505a4:	f7ff febc 	bl	50320 <_PrintUnsigned>
   505a8:	371c      	adds	r7, #28
   505aa:	46bd      	mov	sp, r7
   505ac:	bd90      	pop	{r4, r7, pc}
   505ae:	bf00      	nop

000505b0 <SEGGER_RTT_vprintf>:
   505b0:	b590      	push	{r4, r7, lr}
   505b2:	b0b3      	sub	sp, #204	; 0xcc
   505b4:	af02      	add	r7, sp, #8
   505b6:	60f8      	str	r0, [r7, #12]
   505b8:	60b9      	str	r1, [r7, #8]
   505ba:	607a      	str	r2, [r7, #4]
   505bc:	f107 0310 	add.w	r3, r7, #16
   505c0:	f8c7 3090 	str.w	r3, [r7, #144]	; 0x90
   505c4:	2380      	movs	r3, #128	; 0x80
   505c6:	f8c7 3094 	str.w	r3, [r7, #148]	; 0x94
   505ca:	2300      	movs	r3, #0
   505cc:	f8c7 3098 	str.w	r3, [r7, #152]	; 0x98
   505d0:	68fb      	ldr	r3, [r7, #12]
   505d2:	f8c7 30a0 	str.w	r3, [r7, #160]	; 0xa0
   505d6:	2300      	movs	r3, #0
   505d8:	f8c7 309c 	str.w	r3, [r7, #156]	; 0x9c
   505dc:	68bb      	ldr	r3, [r7, #8]
   505de:	1c5a      	adds	r2, r3, #1
   505e0:	60ba      	str	r2, [r7, #8]
   505e2:	781b      	ldrb	r3, [r3, #0]
   505e4:	f887 30bf 	strb.w	r3, [r7, #191]	; 0xbf
   505e8:	f897 30bf 	ldrb.w	r3, [r7, #191]	; 0xbf
   505ec:	2b00      	cmp	r3, #0
   505ee:	d100      	bne.n	505f2 <SEGGER_RTT_vprintf+0x42>
   505f0:	e189      	b.n	50906 <SEGGER_RTT_vprintf+0x356>
   505f2:	f897 30bf 	ldrb.w	r3, [r7, #191]	; 0xbf
   505f6:	2b25      	cmp	r3, #37	; 0x25
   505f8:	f040 8178 	bne.w	508ec <SEGGER_RTT_vprintf+0x33c>
   505fc:	2300      	movs	r3, #0
   505fe:	f8c7 30b4 	str.w	r3, [r7, #180]	; 0xb4
   50602:	68bb      	ldr	r3, [r7, #8]
   50604:	781b      	ldrb	r3, [r3, #0]
   50606:	f887 30bf 	strb.w	r3, [r7, #191]	; 0xbf
   5060a:	f897 30bf 	ldrb.w	r3, [r7, #191]	; 0xbf
   5060e:	3b23      	subs	r3, #35	; 0x23
   50610:	2b0d      	cmp	r3, #13
   50612:	d848      	bhi.n	506a6 <SEGGER_RTT_vprintf+0xf6>
   50614:	a201      	add	r2, pc, #4	; (adr r2, 5061c <SEGGER_RTT_vprintf+0x6c>)
   50616:	f852 f023 	ldr.w	pc, [r2, r3, lsl #2]
   5061a:	bf00      	nop
   5061c:	00050691 	.word	0x00050691
   50620:	000506a7 	.word	0x000506a7
   50624:	000506a7 	.word	0x000506a7
   50628:	000506a7 	.word	0x000506a7
   5062c:	000506a7 	.word	0x000506a7
   50630:	000506a7 	.word	0x000506a7
   50634:	000506a7 	.word	0x000506a7
   50638:	000506a7 	.word	0x000506a7
   5063c:	0005067d 	.word	0x0005067d
   50640:	000506a7 	.word	0x000506a7
   50644:	00050655 	.word	0x00050655
   50648:	000506a7 	.word	0x000506a7
   5064c:	000506a7 	.word	0x000506a7
   50650:	00050669 	.word	0x00050669
   50654:	f8d7 30b4 	ldr.w	r3, [r7, #180]	; 0xb4
   50658:	f043 0301 	orr.w	r3, r3, #1
   5065c:	f8c7 30b4 	str.w	r3, [r7, #180]	; 0xb4
   50660:	68bb      	ldr	r3, [r7, #8]
   50662:	3301      	adds	r3, #1
   50664:	60bb      	str	r3, [r7, #8]
   50666:	e01d      	b.n	506a4 <SEGGER_RTT_vprintf+0xf4>
   50668:	f8d7 30b4 	ldr.w	r3, [r7, #180]	; 0xb4
   5066c:	f043 0302 	orr.w	r3, r3, #2
   50670:	f8c7 30b4 	str.w	r3, [r7, #180]	; 0xb4
   50674:	68bb      	ldr	r3, [r7, #8]
   50676:	3301      	adds	r3, #1
   50678:	60bb      	str	r3, [r7, #8]
   5067a:	e013      	b.n	506a4 <SEGGER_RTT_vprintf+0xf4>
   5067c:	f8d7 30b4 	ldr.w	r3, [r7, #180]	; 0xb4
   50680:	f043 0304 	orr.w	r3, r3, #4
   50684:	f8c7 30b4 	str.w	r3, [r7, #180]	; 0xb4
   50688:	68bb      	ldr	r3, [r7, #8]
   5068a:	3301      	adds	r3, #1
   5068c:	60bb      	str	r3, [r7, #8]
   5068e:	e009      	b.n	506a4 <SEGGER_RTT_vprintf+0xf4>
   50690:	f8d7 30b4 	ldr.w	r3, [r7, #180]	; 0xb4
   50694:	f043 0308 	orr.w	r3, r3, #8
   50698:	f8c7 30b4 	str.w	r3, [r7, #180]	; 0xb4
   5069c:	68bb      	ldr	r3, [r7, #8]
   5069e:	3301      	adds	r3, #1
   506a0:	60bb      	str	r3, [r7, #8]
   506a2:	bf00      	nop
   506a4:	e7ad      	b.n	50602 <SEGGER_RTT_vprintf+0x52>
   506a6:	bf00      	nop
   506a8:	2300      	movs	r3, #0
   506aa:	f8c7 30b0 	str.w	r3, [r7, #176]	; 0xb0
   506ae:	68bb      	ldr	r3, [r7, #8]
   506b0:	781b      	ldrb	r3, [r3, #0]
   506b2:	f887 30bf 	strb.w	r3, [r7, #191]	; 0xbf
   506b6:	f897 30bf 	ldrb.w	r3, [r7, #191]	; 0xbf
   506ba:	2b2f      	cmp	r3, #47	; 0x2f
   506bc:	d914      	bls.n	506e8 <SEGGER_RTT_vprintf+0x138>
   506be:	f897 30bf 	ldrb.w	r3, [r7, #191]	; 0xbf
   506c2:	2b39      	cmp	r3, #57	; 0x39
   506c4:	d810      	bhi.n	506e8 <SEGGER_RTT_vprintf+0x138>
   506c6:	68bb      	ldr	r3, [r7, #8]
   506c8:	3301      	adds	r3, #1
   506ca:	60bb      	str	r3, [r7, #8]
   506cc:	f8d7 20b0 	ldr.w	r2, [r7, #176]	; 0xb0
   506d0:	4613      	mov	r3, r2
   506d2:	009b      	lsls	r3, r3, #2
   506d4:	4413      	add	r3, r2
   506d6:	005b      	lsls	r3, r3, #1
   506d8:	461a      	mov	r2, r3
   506da:	f897 30bf 	ldrb.w	r3, [r7, #191]	; 0xbf
   506de:	4413      	add	r3, r2
   506e0:	3b30      	subs	r3, #48	; 0x30
   506e2:	f8c7 30b0 	str.w	r3, [r7, #176]	; 0xb0
   506e6:	e7e2      	b.n	506ae <SEGGER_RTT_vprintf+0xfe>
   506e8:	2300      	movs	r3, #0
   506ea:	f8c7 30b8 	str.w	r3, [r7, #184]	; 0xb8
   506ee:	68bb      	ldr	r3, [r7, #8]
   506f0:	781b      	ldrb	r3, [r3, #0]
   506f2:	f887 30bf 	strb.w	r3, [r7, #191]	; 0xbf
   506f6:	f897 30bf 	ldrb.w	r3, [r7, #191]	; 0xbf
   506fa:	2b2e      	cmp	r3, #46	; 0x2e
   506fc:	d11f      	bne.n	5073e <SEGGER_RTT_vprintf+0x18e>
   506fe:	68bb      	ldr	r3, [r7, #8]
   50700:	3301      	adds	r3, #1
   50702:	60bb      	str	r3, [r7, #8]
   50704:	68bb      	ldr	r3, [r7, #8]
   50706:	781b      	ldrb	r3, [r3, #0]
   50708:	f887 30bf 	strb.w	r3, [r7, #191]	; 0xbf
   5070c:	f897 30bf 	ldrb.w	r3, [r7, #191]	; 0xbf
   50710:	2b2f      	cmp	r3, #47	; 0x2f
   50712:	d914      	bls.n	5073e <SEGGER_RTT_vprintf+0x18e>
   50714:	f897 30bf 	ldrb.w	r3, [r7, #191]	; 0xbf
   50718:	2b39      	cmp	r3, #57	; 0x39
   5071a:	d810      	bhi.n	5073e <SEGGER_RTT_vprintf+0x18e>
   5071c:	68bb      	ldr	r3, [r7, #8]
   5071e:	3301      	adds	r3, #1
   50720:	60bb      	str	r3, [r7, #8]
   50722:	f8d7 20b8 	ldr.w	r2, [r7, #184]	; 0xb8
   50726:	4613      	mov	r3, r2
   50728:	009b      	lsls	r3, r3, #2
   5072a:	4413      	add	r3, r2
   5072c:	005b      	lsls	r3, r3, #1
   5072e:	461a      	mov	r2, r3
   50730:	f897 30bf 	ldrb.w	r3, [r7, #191]	; 0xbf
   50734:	4413      	add	r3, r2
   50736:	3b30      	subs	r3, #48	; 0x30
   50738:	f8c7 30b8 	str.w	r3, [r7, #184]	; 0xb8
   5073c:	e7e2      	b.n	50704 <SEGGER_RTT_vprintf+0x154>
   5073e:	68bb      	ldr	r3, [r7, #8]
   50740:	781b      	ldrb	r3, [r3, #0]
   50742:	f887 30bf 	strb.w	r3, [r7, #191]	; 0xbf
   50746:	f897 30bf 	ldrb.w	r3, [r7, #191]	; 0xbf
   5074a:	2b6c      	cmp	r3, #108	; 0x6c
   5074c:	d003      	beq.n	50756 <SEGGER_RTT_vprintf+0x1a6>
   5074e:	f897 30bf 	ldrb.w	r3, [r7, #191]	; 0xbf
   50752:	2b68      	cmp	r3, #104	; 0x68
   50754:	d106      	bne.n	50764 <SEGGER_RTT_vprintf+0x1b4>
   50756:	68bb      	ldr	r3, [r7, #8]
   50758:	1c5a      	adds	r2, r3, #1
   5075a:	60ba      	str	r2, [r7, #8]
   5075c:	781b      	ldrb	r3, [r3, #0]
   5075e:	f887 30bf 	strb.w	r3, [r7, #191]	; 0xbf
   50762:	e7f0      	b.n	50746 <SEGGER_RTT_vprintf+0x196>
   50764:	bf00      	nop
   50766:	f897 30bf 	ldrb.w	r3, [r7, #191]	; 0xbf
   5076a:	2b64      	cmp	r3, #100	; 0x64
   5076c:	d02b      	beq.n	507c6 <SEGGER_RTT_vprintf+0x216>
   5076e:	2b64      	cmp	r3, #100	; 0x64
   50770:	dc07      	bgt.n	50782 <SEGGER_RTT_vprintf+0x1d2>
   50772:	2b58      	cmp	r3, #88	; 0x58
   50774:	d05b      	beq.n	5082e <SEGGER_RTT_vprintf+0x27e>
   50776:	2b63      	cmp	r3, #99	; 0x63
   50778:	d010      	beq.n	5079c <SEGGER_RTT_vprintf+0x1ec>
   5077a:	2b25      	cmp	r3, #37	; 0x25
   5077c:	f000 80ab 	beq.w	508d6 <SEGGER_RTT_vprintf+0x326>
   50780:	e0b0      	b.n	508e4 <SEGGER_RTT_vprintf+0x334>
   50782:	2b73      	cmp	r3, #115	; 0x73
   50784:	d06e      	beq.n	50864 <SEGGER_RTT_vprintf+0x2b4>
   50786:	2b73      	cmp	r3, #115	; 0x73
   50788:	dc03      	bgt.n	50792 <SEGGER_RTT_vprintf+0x1e2>
   5078a:	2b70      	cmp	r3, #112	; 0x70
   5078c:	f000 808c 	beq.w	508a8 <SEGGER_RTT_vprintf+0x2f8>
   50790:	e0a8      	b.n	508e4 <SEGGER_RTT_vprintf+0x334>
   50792:	2b75      	cmp	r3, #117	; 0x75
   50794:	d030      	beq.n	507f8 <SEGGER_RTT_vprintf+0x248>
   50796:	2b78      	cmp	r3, #120	; 0x78
   50798:	d049      	beq.n	5082e <SEGGER_RTT_vprintf+0x27e>
   5079a:	e0a3      	b.n	508e4 <SEGGER_RTT_vprintf+0x334>
   5079c:	687b      	ldr	r3, [r7, #4]
   5079e:	681b      	ldr	r3, [r3, #0]
   507a0:	1d19      	adds	r1, r3, #4
   507a2:	687a      	ldr	r2, [r7, #4]
   507a4:	6011      	str	r1, [r2, #0]
   507a6:	681b      	ldr	r3, [r3, #0]
   507a8:	f8c7 30a8 	str.w	r3, [r7, #168]	; 0xa8
   507ac:	f8d7 30a8 	ldr.w	r3, [r7, #168]	; 0xa8
   507b0:	f887 30a7 	strb.w	r3, [r7, #167]	; 0xa7
   507b4:	f107 0290 	add.w	r2, r7, #144	; 0x90
   507b8:	f897 30a7 	ldrb.w	r3, [r7, #167]	; 0xa7
   507bc:	4610      	mov	r0, r2
   507be:	4619      	mov	r1, r3
   507c0:	f7ff fd6e 	bl	502a0 <_StoreChar>
   507c4:	e08e      	b.n	508e4 <SEGGER_RTT_vprintf+0x334>
   507c6:	687b      	ldr	r3, [r7, #4]
   507c8:	681b      	ldr	r3, [r3, #0]
   507ca:	1d19      	adds	r1, r3, #4
   507cc:	687a      	ldr	r2, [r7, #4]
   507ce:	6011      	str	r1, [r2, #0]
   507d0:	681b      	ldr	r3, [r3, #0]
   507d2:	f8c7 30a8 	str.w	r3, [r7, #168]	; 0xa8
   507d6:	f107 0290 	add.w	r2, r7, #144	; 0x90
   507da:	f8d7 30b0 	ldr.w	r3, [r7, #176]	; 0xb0
   507de:	9300      	str	r3, [sp, #0]
   507e0:	f8d7 30b4 	ldr.w	r3, [r7, #180]	; 0xb4
   507e4:	9301      	str	r3, [sp, #4]
   507e6:	4610      	mov	r0, r2
   507e8:	f8d7 10a8 	ldr.w	r1, [r7, #168]	; 0xa8
   507ec:	220a      	movs	r2, #10
   507ee:	f8d7 30b8 	ldr.w	r3, [r7, #184]	; 0xb8
   507f2:	f7ff fe3b 	bl	5046c <_PrintInt>
   507f6:	e075      	b.n	508e4 <SEGGER_RTT_vprintf+0x334>
   507f8:	687b      	ldr	r3, [r7, #4]
   507fa:	681b      	ldr	r3, [r3, #0]
   507fc:	1d19      	adds	r1, r3, #4
   507fe:	687a      	ldr	r2, [r7, #4]
   50800:	6011      	str	r1, [r2, #0]
   50802:	681b      	ldr	r3, [r3, #0]
   50804:	f8c7 30a8 	str.w	r3, [r7, #168]	; 0xa8
   50808:	f8d7 20a8 	ldr.w	r2, [r7, #168]	; 0xa8
   5080c:	f8d7 40b8 	ldr.w	r4, [r7, #184]	; 0xb8
   50810:	f107 0190 	add.w	r1, r7, #144	; 0x90
   50814:	f8d7 30b0 	ldr.w	r3, [r7, #176]	; 0xb0
   50818:	9300      	str	r3, [sp, #0]
   5081a:	f8d7 30b4 	ldr.w	r3, [r7, #180]	; 0xb4
   5081e:	9301      	str	r3, [sp, #4]
   50820:	4608      	mov	r0, r1
   50822:	4611      	mov	r1, r2
   50824:	220a      	movs	r2, #10
   50826:	4623      	mov	r3, r4
   50828:	f7ff fd7a 	bl	50320 <_PrintUnsigned>
   5082c:	e05a      	b.n	508e4 <SEGGER_RTT_vprintf+0x334>
   5082e:	687b      	ldr	r3, [r7, #4]
   50830:	681b      	ldr	r3, [r3, #0]
   50832:	1d19      	adds	r1, r3, #4
   50834:	687a      	ldr	r2, [r7, #4]
   50836:	6011      	str	r1, [r2, #0]
   50838:	681b      	ldr	r3, [r3, #0]
   5083a:	f8c7 30a8 	str.w	r3, [r7, #168]	; 0xa8
   5083e:	f8d7 20a8 	ldr.w	r2, [r7, #168]	; 0xa8
   50842:	f8d7 40b8 	ldr.w	r4, [r7, #184]	; 0xb8
   50846:	f107 0190 	add.w	r1, r7, #144	; 0x90
   5084a:	f8d7 30b0 	ldr.w	r3, [r7, #176]	; 0xb0
   5084e:	9300      	str	r3, [sp, #0]
   50850:	f8d7 30b4 	ldr.w	r3, [r7, #180]	; 0xb4
   50854:	9301      	str	r3, [sp, #4]
   50856:	4608      	mov	r0, r1
   50858:	4611      	mov	r1, r2
   5085a:	2210      	movs	r2, #16
   5085c:	4623      	mov	r3, r4
   5085e:	f7ff fd5f 	bl	50320 <_PrintUnsigned>
   50862:	e03f      	b.n	508e4 <SEGGER_RTT_vprintf+0x334>
   50864:	687b      	ldr	r3, [r7, #4]
   50866:	681b      	ldr	r3, [r3, #0]
   50868:	1d19      	adds	r1, r3, #4
   5086a:	687a      	ldr	r2, [r7, #4]
   5086c:	6011      	str	r1, [r2, #0]
   5086e:	681b      	ldr	r3, [r3, #0]
   50870:	f8c7 30ac 	str.w	r3, [r7, #172]	; 0xac
   50874:	f8d7 30ac 	ldr.w	r3, [r7, #172]	; 0xac
   50878:	1c5a      	adds	r2, r3, #1
   5087a:	f8c7 20ac 	str.w	r2, [r7, #172]	; 0xac
   5087e:	781b      	ldrb	r3, [r3, #0]
   50880:	f887 30bf 	strb.w	r3, [r7, #191]	; 0xbf
   50884:	f897 30bf 	ldrb.w	r3, [r7, #191]	; 0xbf
   50888:	2b00      	cmp	r3, #0
   5088a:	d100      	bne.n	5088e <SEGGER_RTT_vprintf+0x2de>
   5088c:	e00b      	b.n	508a6 <SEGGER_RTT_vprintf+0x2f6>
   5088e:	f107 0290 	add.w	r2, r7, #144	; 0x90
   50892:	f897 30bf 	ldrb.w	r3, [r7, #191]	; 0xbf
   50896:	4610      	mov	r0, r2
   50898:	4619      	mov	r1, r3
   5089a:	f7ff fd01 	bl	502a0 <_StoreChar>
   5089e:	f8d7 309c 	ldr.w	r3, [r7, #156]	; 0x9c
   508a2:	2b00      	cmp	r3, #0
   508a4:	dae6      	bge.n	50874 <SEGGER_RTT_vprintf+0x2c4>
   508a6:	e01d      	b.n	508e4 <SEGGER_RTT_vprintf+0x334>
   508a8:	687b      	ldr	r3, [r7, #4]
   508aa:	681b      	ldr	r3, [r3, #0]
   508ac:	1d19      	adds	r1, r3, #4
   508ae:	687a      	ldr	r2, [r7, #4]
   508b0:	6011      	str	r1, [r2, #0]
   508b2:	681b      	ldr	r3, [r3, #0]
   508b4:	f8c7 30a8 	str.w	r3, [r7, #168]	; 0xa8
   508b8:	f8d7 20a8 	ldr.w	r2, [r7, #168]	; 0xa8
   508bc:	f107 0190 	add.w	r1, r7, #144	; 0x90
   508c0:	2308      	movs	r3, #8
   508c2:	9300      	str	r3, [sp, #0]
   508c4:	2300      	movs	r3, #0
   508c6:	9301      	str	r3, [sp, #4]
   508c8:	4608      	mov	r0, r1
   508ca:	4611      	mov	r1, r2
   508cc:	2210      	movs	r2, #16
   508ce:	2308      	movs	r3, #8
   508d0:	f7ff fd26 	bl	50320 <_PrintUnsigned>
   508d4:	e006      	b.n	508e4 <SEGGER_RTT_vprintf+0x334>
   508d6:	f107 0390 	add.w	r3, r7, #144	; 0x90
   508da:	4618      	mov	r0, r3
   508dc:	2125      	movs	r1, #37	; 0x25
   508de:	f7ff fcdf 	bl	502a0 <_StoreChar>
   508e2:	bf00      	nop
   508e4:	68bb      	ldr	r3, [r7, #8]
   508e6:	3301      	adds	r3, #1
   508e8:	60bb      	str	r3, [r7, #8]
   508ea:	e007      	b.n	508fc <SEGGER_RTT_vprintf+0x34c>
   508ec:	f107 0290 	add.w	r2, r7, #144	; 0x90
   508f0:	f897 30bf 	ldrb.w	r3, [r7, #191]	; 0xbf
   508f4:	4610      	mov	r0, r2
   508f6:	4619      	mov	r1, r3
   508f8:	f7ff fcd2 	bl	502a0 <_StoreChar>
   508fc:	f8d7 309c 	ldr.w	r3, [r7, #156]	; 0x9c
   50900:	2b00      	cmp	r3, #0
   50902:	f6bf ae6b 	bge.w	505dc <SEGGER_RTT_vprintf+0x2c>
   50906:	f8d7 309c 	ldr.w	r3, [r7, #156]	; 0x9c
   5090a:	2b00      	cmp	r3, #0
   5090c:	dd13      	ble.n	50936 <SEGGER_RTT_vprintf+0x386>
   5090e:	f8d7 3098 	ldr.w	r3, [r7, #152]	; 0x98
   50912:	2b00      	cmp	r3, #0
   50914:	d008      	beq.n	50928 <SEGGER_RTT_vprintf+0x378>
   50916:	f8d7 3098 	ldr.w	r3, [r7, #152]	; 0x98
   5091a:	461a      	mov	r2, r3
   5091c:	f107 0310 	add.w	r3, r7, #16
   50920:	68f8      	ldr	r0, [r7, #12]
   50922:	4619      	mov	r1, r3
   50924:	f000 f8f2 	bl	50b0c <SEGGER_RTT_Write>
   50928:	f8d7 209c 	ldr.w	r2, [r7, #156]	; 0x9c
   5092c:	f8d7 3098 	ldr.w	r3, [r7, #152]	; 0x98
   50930:	4413      	add	r3, r2
   50932:	f8c7 309c 	str.w	r3, [r7, #156]	; 0x9c
   50936:	f8d7 309c 	ldr.w	r3, [r7, #156]	; 0x9c
   5093a:	4618      	mov	r0, r3
   5093c:	37c4      	adds	r7, #196	; 0xc4
   5093e:	46bd      	mov	sp, r7
   50940:	bd90      	pop	{r4, r7, pc}
   50942:	bf00      	nop

00050944 <SEGGER_RTT_printf>:
   50944:	b40e      	push	{r1, r2, r3}
   50946:	b580      	push	{r7, lr}
   50948:	b085      	sub	sp, #20
   5094a:	af00      	add	r7, sp, #0
   5094c:	6078      	str	r0, [r7, #4]
   5094e:	f107 0320 	add.w	r3, r7, #32
   50952:	60fb      	str	r3, [r7, #12]
   50954:	f107 030c 	add.w	r3, r7, #12
   50958:	6878      	ldr	r0, [r7, #4]
   5095a:	69f9      	ldr	r1, [r7, #28]
   5095c:	461a      	mov	r2, r3
   5095e:	f7ff fe27 	bl	505b0 <SEGGER_RTT_vprintf>
   50962:	4603      	mov	r3, r0
   50964:	4618      	mov	r0, r3
   50966:	3714      	adds	r7, #20
   50968:	46bd      	mov	sp, r7
   5096a:	e8bd 4080 	ldmia.w	sp!, {r7, lr}
   5096e:	b003      	add	sp, #12
   50970:	4770      	bx	lr
   50972:	bf00      	nop

00050974 <_strlen>:
   50974:	b480      	push	{r7}
   50976:	b085      	sub	sp, #20
   50978:	af00      	add	r7, sp, #0
   5097a:	6078      	str	r0, [r7, #4]
   5097c:	2300      	movs	r3, #0
   5097e:	60fb      	str	r3, [r7, #12]
   50980:	687b      	ldr	r3, [r7, #4]
   50982:	2b00      	cmp	r3, #0
   50984:	d101      	bne.n	5098a <_strlen+0x16>
   50986:	2300      	movs	r3, #0
   50988:	e00d      	b.n	509a6 <_strlen+0x32>
   5098a:	687b      	ldr	r3, [r7, #4]
   5098c:	781b      	ldrb	r3, [r3, #0]
   5098e:	2b00      	cmp	r3, #0
   50990:	d102      	bne.n	50998 <_strlen+0x24>
   50992:	bf00      	nop
   50994:	68fb      	ldr	r3, [r7, #12]
   50996:	e006      	b.n	509a6 <_strlen+0x32>
   50998:	68fb      	ldr	r3, [r7, #12]
   5099a:	3301      	adds	r3, #1
   5099c:	60fb      	str	r3, [r7, #12]
   5099e:	687b      	ldr	r3, [r7, #4]
   509a0:	3301      	adds	r3, #1
   509a2:	607b      	str	r3, [r7, #4]
   509a4:	e7f1      	b.n	5098a <_strlen+0x16>
   509a6:	4618      	mov	r0, r3
   509a8:	3714      	adds	r7, #20
   509aa:	46bd      	mov	sp, r7
   509ac:	f85d 7b04 	ldr.w	r7, [sp], #4
   509b0:	4770      	bx	lr
   509b2:	bf00      	nop

000509b4 <_Init>:
   509b4:	b480      	push	{r7}
   509b6:	af00      	add	r7, sp, #0
   509b8:	46bd      	mov	sp, r7
   509ba:	f85d 7b04 	ldr.w	r7, [sp], #4
   509be:	4770      	bx	lr

000509c0 <SEGGER_RTT_Read>:
   509c0:	b580      	push	{r7, lr}
   509c2:	b088      	sub	sp, #32
   509c4:	af00      	add	r7, sp, #0
   509c6:	60f8      	str	r0, [r7, #12]
   509c8:	60b9      	str	r1, [r7, #8]
   509ca:	607a      	str	r2, [r7, #4]
   509cc:	f7ff fff2 	bl	509b4 <_Init>
   509d0:	494d      	ldr	r1, [pc, #308]	; (50b08 <SEGGER_RTT_Read+0x148>)
   509d2:	68fa      	ldr	r2, [r7, #12]
   509d4:	4613      	mov	r3, r2
   509d6:	005b      	lsls	r3, r3, #1
   509d8:	4413      	add	r3, r2
   509da:	00db      	lsls	r3, r3, #3
   509dc:	440b      	add	r3, r1
   509de:	3358      	adds	r3, #88	; 0x58
   509e0:	681b      	ldr	r3, [r3, #0]
   509e2:	61bb      	str	r3, [r7, #24]
   509e4:	4948      	ldr	r1, [pc, #288]	; (50b08 <SEGGER_RTT_Read+0x148>)
   509e6:	68fa      	ldr	r2, [r7, #12]
   509e8:	4613      	mov	r3, r2
   509ea:	005b      	lsls	r3, r3, #1
   509ec:	4413      	add	r3, r2
   509ee:	00db      	lsls	r3, r3, #3
   509f0:	440b      	add	r3, r1
   509f2:	3350      	adds	r3, #80	; 0x50
   509f4:	685b      	ldr	r3, [r3, #4]
   509f6:	617b      	str	r3, [r7, #20]
   509f8:	2300      	movs	r3, #0
   509fa:	61fb      	str	r3, [r7, #28]
   509fc:	69ba      	ldr	r2, [r7, #24]
   509fe:	697b      	ldr	r3, [r7, #20]
   50a00:	429a      	cmp	r2, r3
   50a02:	dd40      	ble.n	50a86 <SEGGER_RTT_Read+0xc6>
   50a04:	4940      	ldr	r1, [pc, #256]	; (50b08 <SEGGER_RTT_Read+0x148>)
   50a06:	68fa      	ldr	r2, [r7, #12]
   50a08:	4613      	mov	r3, r2
   50a0a:	005b      	lsls	r3, r3, #1
   50a0c:	4413      	add	r3, r2
   50a0e:	00db      	lsls	r3, r3, #3
   50a10:	440b      	add	r3, r1
   50a12:	3350      	adds	r3, #80	; 0x50
   50a14:	681a      	ldr	r2, [r3, #0]
   50a16:	69bb      	ldr	r3, [r7, #24]
   50a18:	1ad3      	subs	r3, r2, r3
   50a1a:	613b      	str	r3, [r7, #16]
   50a1c:	687b      	ldr	r3, [r7, #4]
   50a1e:	693a      	ldr	r2, [r7, #16]
   50a20:	4293      	cmp	r3, r2
   50a22:	bfa8      	it	ge
   50a24:	4613      	movge	r3, r2
   50a26:	613b      	str	r3, [r7, #16]
   50a28:	4937      	ldr	r1, [pc, #220]	; (50b08 <SEGGER_RTT_Read+0x148>)
   50a2a:	68fa      	ldr	r2, [r7, #12]
   50a2c:	4613      	mov	r3, r2
   50a2e:	005b      	lsls	r3, r3, #1
   50a30:	4413      	add	r3, r2
   50a32:	00db      	lsls	r3, r3, #3
   50a34:	440b      	add	r3, r1
   50a36:	3348      	adds	r3, #72	; 0x48
   50a38:	685a      	ldr	r2, [r3, #4]
   50a3a:	69bb      	ldr	r3, [r7, #24]
   50a3c:	441a      	add	r2, r3
   50a3e:	693b      	ldr	r3, [r7, #16]
   50a40:	68b8      	ldr	r0, [r7, #8]
   50a42:	4611      	mov	r1, r2
   50a44:	461a      	mov	r2, r3
   50a46:	f000 fecf 	bl	517e8 <memcpy>
   50a4a:	693b      	ldr	r3, [r7, #16]
   50a4c:	69fa      	ldr	r2, [r7, #28]
   50a4e:	4413      	add	r3, r2
   50a50:	61fb      	str	r3, [r7, #28]
   50a52:	693b      	ldr	r3, [r7, #16]
   50a54:	68ba      	ldr	r2, [r7, #8]
   50a56:	4413      	add	r3, r2
   50a58:	60bb      	str	r3, [r7, #8]
   50a5a:	693b      	ldr	r3, [r7, #16]
   50a5c:	687a      	ldr	r2, [r7, #4]
   50a5e:	1ad3      	subs	r3, r2, r3
   50a60:	607b      	str	r3, [r7, #4]
   50a62:	69ba      	ldr	r2, [r7, #24]
   50a64:	693b      	ldr	r3, [r7, #16]
   50a66:	4413      	add	r3, r2
   50a68:	61bb      	str	r3, [r7, #24]
   50a6a:	4927      	ldr	r1, [pc, #156]	; (50b08 <SEGGER_RTT_Read+0x148>)
   50a6c:	68fa      	ldr	r2, [r7, #12]
   50a6e:	4613      	mov	r3, r2
   50a70:	005b      	lsls	r3, r3, #1
   50a72:	4413      	add	r3, r2
   50a74:	00db      	lsls	r3, r3, #3
   50a76:	440b      	add	r3, r1
   50a78:	3350      	adds	r3, #80	; 0x50
   50a7a:	681a      	ldr	r2, [r3, #0]
   50a7c:	69bb      	ldr	r3, [r7, #24]
   50a7e:	429a      	cmp	r2, r3
   50a80:	d101      	bne.n	50a86 <SEGGER_RTT_Read+0xc6>
   50a82:	2300      	movs	r3, #0
   50a84:	61bb      	str	r3, [r7, #24]
   50a86:	697a      	ldr	r2, [r7, #20]
   50a88:	69bb      	ldr	r3, [r7, #24]
   50a8a:	1ad3      	subs	r3, r2, r3
   50a8c:	613b      	str	r3, [r7, #16]
   50a8e:	687b      	ldr	r3, [r7, #4]
   50a90:	693a      	ldr	r2, [r7, #16]
   50a92:	4293      	cmp	r3, r2
   50a94:	bfa8      	it	ge
   50a96:	4613      	movge	r3, r2
   50a98:	613b      	str	r3, [r7, #16]
   50a9a:	693b      	ldr	r3, [r7, #16]
   50a9c:	2b00      	cmp	r3, #0
   50a9e:	dd20      	ble.n	50ae2 <SEGGER_RTT_Read+0x122>
   50aa0:	4919      	ldr	r1, [pc, #100]	; (50b08 <SEGGER_RTT_Read+0x148>)
   50aa2:	68fa      	ldr	r2, [r7, #12]
   50aa4:	4613      	mov	r3, r2
   50aa6:	005b      	lsls	r3, r3, #1
   50aa8:	4413      	add	r3, r2
   50aaa:	00db      	lsls	r3, r3, #3
   50aac:	440b      	add	r3, r1
   50aae:	3348      	adds	r3, #72	; 0x48
   50ab0:	685a      	ldr	r2, [r3, #4]
   50ab2:	69bb      	ldr	r3, [r7, #24]
   50ab4:	441a      	add	r2, r3
   50ab6:	693b      	ldr	r3, [r7, #16]
   50ab8:	68b8      	ldr	r0, [r7, #8]
   50aba:	4611      	mov	r1, r2
   50abc:	461a      	mov	r2, r3
   50abe:	f000 fe93 	bl	517e8 <memcpy>
   50ac2:	693b      	ldr	r3, [r7, #16]
   50ac4:	69fa      	ldr	r2, [r7, #28]
   50ac6:	4413      	add	r3, r2
   50ac8:	61fb      	str	r3, [r7, #28]
   50aca:	693b      	ldr	r3, [r7, #16]
   50acc:	68ba      	ldr	r2, [r7, #8]
   50ace:	4413      	add	r3, r2
   50ad0:	60bb      	str	r3, [r7, #8]
   50ad2:	693b      	ldr	r3, [r7, #16]
   50ad4:	687a      	ldr	r2, [r7, #4]
   50ad6:	1ad3      	subs	r3, r2, r3
   50ad8:	607b      	str	r3, [r7, #4]
   50ada:	69ba      	ldr	r2, [r7, #24]
   50adc:	693b      	ldr	r3, [r7, #16]
   50ade:	4413      	add	r3, r2
   50ae0:	61bb      	str	r3, [r7, #24]
   50ae2:	69fb      	ldr	r3, [r7, #28]
   50ae4:	2b00      	cmp	r3, #0
   50ae6:	d009      	beq.n	50afc <SEGGER_RTT_Read+0x13c>
   50ae8:	4907      	ldr	r1, [pc, #28]	; (50b08 <SEGGER_RTT_Read+0x148>)
   50aea:	68fa      	ldr	r2, [r7, #12]
   50aec:	4613      	mov	r3, r2
   50aee:	005b      	lsls	r3, r3, #1
   50af0:	4413      	add	r3, r2
   50af2:	00db      	lsls	r3, r3, #3
   50af4:	440b      	add	r3, r1
   50af6:	3358      	adds	r3, #88	; 0x58
   50af8:	69ba      	ldr	r2, [r7, #24]
   50afa:	601a      	str	r2, [r3, #0]
   50afc:	69fb      	ldr	r3, [r7, #28]
   50afe:	4618      	mov	r0, r3
   50b00:	3720      	adds	r7, #32
   50b02:	46bd      	mov	sp, r7
   50b04:	bd80      	pop	{r7, pc}
   50b06:	bf00      	nop
   50b08:	20005000 	.word	0x20005000

00050b0c <SEGGER_RTT_Write>:
   50b0c:	b580      	push	{r7, lr}
   50b0e:	b088      	sub	sp, #32
   50b10:	af00      	add	r7, sp, #0
   50b12:	60f8      	str	r0, [r7, #12]
   50b14:	60b9      	str	r1, [r7, #8]
   50b16:	607a      	str	r2, [r7, #4]
   50b18:	f7ff ff4c 	bl	509b4 <_Init>
   50b1c:	4983      	ldr	r1, [pc, #524]	; (50d2c <SEGGER_RTT_Write+0x220>)
   50b1e:	68fa      	ldr	r2, [r7, #12]
   50b20:	4613      	mov	r3, r2
   50b22:	005b      	lsls	r3, r3, #1
   50b24:	4413      	add	r3, r2
   50b26:	00db      	lsls	r3, r3, #3
   50b28:	440b      	add	r3, r1
   50b2a:	3328      	adds	r3, #40	; 0x28
   50b2c:	685b      	ldr	r3, [r3, #4]
   50b2e:	f003 0303 	and.w	r3, r3, #3
   50b32:	2b02      	cmp	r3, #2
   50b34:	d03a      	beq.n	50bac <SEGGER_RTT_Write+0xa0>
   50b36:	497d      	ldr	r1, [pc, #500]	; (50d2c <SEGGER_RTT_Write+0x220>)
   50b38:	68fa      	ldr	r2, [r7, #12]
   50b3a:	4613      	mov	r3, r2
   50b3c:	005b      	lsls	r3, r3, #1
   50b3e:	4413      	add	r3, r2
   50b40:	00db      	lsls	r3, r3, #3
   50b42:	440b      	add	r3, r1
   50b44:	3328      	adds	r3, #40	; 0x28
   50b46:	681b      	ldr	r3, [r3, #0]
   50b48:	617b      	str	r3, [r7, #20]
   50b4a:	4978      	ldr	r1, [pc, #480]	; (50d2c <SEGGER_RTT_Write+0x220>)
   50b4c:	68fa      	ldr	r2, [r7, #12]
   50b4e:	4613      	mov	r3, r2
   50b50:	005b      	lsls	r3, r3, #1
   50b52:	4413      	add	r3, r2
   50b54:	00db      	lsls	r3, r3, #3
   50b56:	440b      	add	r3, r1
   50b58:	3320      	adds	r3, #32
   50b5a:	685b      	ldr	r3, [r3, #4]
   50b5c:	697a      	ldr	r2, [r7, #20]
   50b5e:	1ad3      	subs	r3, r2, r3
   50b60:	3b01      	subs	r3, #1
   50b62:	61fb      	str	r3, [r7, #28]
   50b64:	69fb      	ldr	r3, [r7, #28]
   50b66:	2b00      	cmp	r3, #0
   50b68:	da0b      	bge.n	50b82 <SEGGER_RTT_Write+0x76>
   50b6a:	4970      	ldr	r1, [pc, #448]	; (50d2c <SEGGER_RTT_Write+0x220>)
   50b6c:	68fa      	ldr	r2, [r7, #12]
   50b6e:	4613      	mov	r3, r2
   50b70:	005b      	lsls	r3, r3, #1
   50b72:	4413      	add	r3, r2
   50b74:	00db      	lsls	r3, r3, #3
   50b76:	440b      	add	r3, r1
   50b78:	3320      	adds	r3, #32
   50b7a:	681b      	ldr	r3, [r3, #0]
   50b7c:	69fa      	ldr	r2, [r7, #28]
   50b7e:	4413      	add	r3, r2
   50b80:	61fb      	str	r3, [r7, #28]
   50b82:	687a      	ldr	r2, [r7, #4]
   50b84:	69fb      	ldr	r3, [r7, #28]
   50b86:	429a      	cmp	r2, r3
   50b88:	dd10      	ble.n	50bac <SEGGER_RTT_Write+0xa0>
   50b8a:	4968      	ldr	r1, [pc, #416]	; (50d2c <SEGGER_RTT_Write+0x220>)
   50b8c:	68fa      	ldr	r2, [r7, #12]
   50b8e:	4613      	mov	r3, r2
   50b90:	005b      	lsls	r3, r3, #1
   50b92:	4413      	add	r3, r2
   50b94:	00db      	lsls	r3, r3, #3
   50b96:	440b      	add	r3, r1
   50b98:	3328      	adds	r3, #40	; 0x28
   50b9a:	685b      	ldr	r3, [r3, #4]
   50b9c:	f003 0303 	and.w	r3, r3, #3
   50ba0:	2b00      	cmp	r3, #0
   50ba2:	d101      	bne.n	50ba8 <SEGGER_RTT_Write+0x9c>
   50ba4:	2300      	movs	r3, #0
   50ba6:	e0bc      	b.n	50d22 <SEGGER_RTT_Write+0x216>
   50ba8:	69fb      	ldr	r3, [r7, #28]
   50baa:	607b      	str	r3, [r7, #4]
   50bac:	687b      	ldr	r3, [r7, #4]
   50bae:	2b00      	cmp	r3, #0
   50bb0:	d101      	bne.n	50bb6 <SEGGER_RTT_Write+0xaa>
   50bb2:	2300      	movs	r3, #0
   50bb4:	e0b5      	b.n	50d22 <SEGGER_RTT_Write+0x216>
   50bb6:	2300      	movs	r3, #0
   50bb8:	61bb      	str	r3, [r7, #24]
   50bba:	495c      	ldr	r1, [pc, #368]	; (50d2c <SEGGER_RTT_Write+0x220>)
   50bbc:	68fa      	ldr	r2, [r7, #12]
   50bbe:	4613      	mov	r3, r2
   50bc0:	005b      	lsls	r3, r3, #1
   50bc2:	4413      	add	r3, r2
   50bc4:	00db      	lsls	r3, r3, #3
   50bc6:	440b      	add	r3, r1
   50bc8:	3328      	adds	r3, #40	; 0x28
   50bca:	681b      	ldr	r3, [r3, #0]
   50bcc:	617b      	str	r3, [r7, #20]
   50bce:	4957      	ldr	r1, [pc, #348]	; (50d2c <SEGGER_RTT_Write+0x220>)
   50bd0:	68fa      	ldr	r2, [r7, #12]
   50bd2:	4613      	mov	r3, r2
   50bd4:	005b      	lsls	r3, r3, #1
   50bd6:	4413      	add	r3, r2
   50bd8:	00db      	lsls	r3, r3, #3
   50bda:	440b      	add	r3, r1
   50bdc:	3320      	adds	r3, #32
   50bde:	685b      	ldr	r3, [r3, #4]
   50be0:	697a      	ldr	r2, [r7, #20]
   50be2:	1ad3      	subs	r3, r2, r3
   50be4:	3b01      	subs	r3, #1
   50be6:	61fb      	str	r3, [r7, #28]
   50be8:	69fb      	ldr	r3, [r7, #28]
   50bea:	2b00      	cmp	r3, #0
   50bec:	da0b      	bge.n	50c06 <SEGGER_RTT_Write+0xfa>
   50bee:	494f      	ldr	r1, [pc, #316]	; (50d2c <SEGGER_RTT_Write+0x220>)
   50bf0:	68fa      	ldr	r2, [r7, #12]
   50bf2:	4613      	mov	r3, r2
   50bf4:	005b      	lsls	r3, r3, #1
   50bf6:	4413      	add	r3, r2
   50bf8:	00db      	lsls	r3, r3, #3
   50bfa:	440b      	add	r3, r1
   50bfc:	3320      	adds	r3, #32
   50bfe:	681b      	ldr	r3, [r3, #0]
   50c00:	69fa      	ldr	r2, [r7, #28]
   50c02:	4413      	add	r3, r2
   50c04:	61fb      	str	r3, [r7, #28]
   50c06:	4949      	ldr	r1, [pc, #292]	; (50d2c <SEGGER_RTT_Write+0x220>)
   50c08:	68fa      	ldr	r2, [r7, #12]
   50c0a:	4613      	mov	r3, r2
   50c0c:	005b      	lsls	r3, r3, #1
   50c0e:	4413      	add	r3, r2
   50c10:	00db      	lsls	r3, r3, #3
   50c12:	440b      	add	r3, r1
   50c14:	3320      	adds	r3, #32
   50c16:	6819      	ldr	r1, [r3, #0]
   50c18:	4844      	ldr	r0, [pc, #272]	; (50d2c <SEGGER_RTT_Write+0x220>)
   50c1a:	68fa      	ldr	r2, [r7, #12]
   50c1c:	4613      	mov	r3, r2
   50c1e:	005b      	lsls	r3, r3, #1
   50c20:	4413      	add	r3, r2
   50c22:	00db      	lsls	r3, r3, #3
   50c24:	4403      	add	r3, r0
   50c26:	3320      	adds	r3, #32
   50c28:	685b      	ldr	r3, [r3, #4]
   50c2a:	1aca      	subs	r2, r1, r3
   50c2c:	69fb      	ldr	r3, [r7, #28]
   50c2e:	429a      	cmp	r2, r3
   50c30:	dc13      	bgt.n	50c5a <SEGGER_RTT_Write+0x14e>
   50c32:	493e      	ldr	r1, [pc, #248]	; (50d2c <SEGGER_RTT_Write+0x220>)
   50c34:	68fa      	ldr	r2, [r7, #12]
   50c36:	4613      	mov	r3, r2
   50c38:	005b      	lsls	r3, r3, #1
   50c3a:	4413      	add	r3, r2
   50c3c:	00db      	lsls	r3, r3, #3
   50c3e:	440b      	add	r3, r1
   50c40:	3320      	adds	r3, #32
   50c42:	6819      	ldr	r1, [r3, #0]
   50c44:	4839      	ldr	r0, [pc, #228]	; (50d2c <SEGGER_RTT_Write+0x220>)
   50c46:	68fa      	ldr	r2, [r7, #12]
   50c48:	4613      	mov	r3, r2
   50c4a:	005b      	lsls	r3, r3, #1
   50c4c:	4413      	add	r3, r2
   50c4e:	00db      	lsls	r3, r3, #3
   50c50:	4403      	add	r3, r0
   50c52:	3320      	adds	r3, #32
   50c54:	685b      	ldr	r3, [r3, #4]
   50c56:	1acb      	subs	r3, r1, r3
   50c58:	e000      	b.n	50c5c <SEGGER_RTT_Write+0x150>
   50c5a:	69fb      	ldr	r3, [r7, #28]
   50c5c:	61fb      	str	r3, [r7, #28]
   50c5e:	687b      	ldr	r3, [r7, #4]
   50c60:	69fa      	ldr	r2, [r7, #28]
   50c62:	4293      	cmp	r3, r2
   50c64:	bfa8      	it	ge
   50c66:	4613      	movge	r3, r2
   50c68:	61fb      	str	r3, [r7, #28]
   50c6a:	4930      	ldr	r1, [pc, #192]	; (50d2c <SEGGER_RTT_Write+0x220>)
   50c6c:	68fb      	ldr	r3, [r7, #12]
   50c6e:	1c5a      	adds	r2, r3, #1
   50c70:	4613      	mov	r3, r2
   50c72:	005b      	lsls	r3, r3, #1
   50c74:	4413      	add	r3, r2
   50c76:	00db      	lsls	r3, r3, #3
   50c78:	440b      	add	r3, r1
   50c7a:	6859      	ldr	r1, [r3, #4]
   50c7c:	482b      	ldr	r0, [pc, #172]	; (50d2c <SEGGER_RTT_Write+0x220>)
   50c7e:	68fa      	ldr	r2, [r7, #12]
   50c80:	4613      	mov	r3, r2
   50c82:	005b      	lsls	r3, r3, #1
   50c84:	4413      	add	r3, r2
   50c86:	00db      	lsls	r3, r3, #3
   50c88:	4403      	add	r3, r0
   50c8a:	3320      	adds	r3, #32
   50c8c:	685b      	ldr	r3, [r3, #4]
   50c8e:	18ca      	adds	r2, r1, r3
   50c90:	69fb      	ldr	r3, [r7, #28]
   50c92:	4610      	mov	r0, r2
   50c94:	68b9      	ldr	r1, [r7, #8]
   50c96:	461a      	mov	r2, r3
   50c98:	f000 fda6 	bl	517e8 <memcpy>
   50c9c:	69fb      	ldr	r3, [r7, #28]
   50c9e:	69ba      	ldr	r2, [r7, #24]
   50ca0:	4413      	add	r3, r2
   50ca2:	61bb      	str	r3, [r7, #24]
   50ca4:	69fb      	ldr	r3, [r7, #28]
   50ca6:	68ba      	ldr	r2, [r7, #8]
   50ca8:	4413      	add	r3, r2
   50caa:	60bb      	str	r3, [r7, #8]
   50cac:	69fb      	ldr	r3, [r7, #28]
   50cae:	687a      	ldr	r2, [r7, #4]
   50cb0:	1ad3      	subs	r3, r2, r3
   50cb2:	607b      	str	r3, [r7, #4]
   50cb4:	491d      	ldr	r1, [pc, #116]	; (50d2c <SEGGER_RTT_Write+0x220>)
   50cb6:	68fa      	ldr	r2, [r7, #12]
   50cb8:	4613      	mov	r3, r2
   50cba:	005b      	lsls	r3, r3, #1
   50cbc:	4413      	add	r3, r2
   50cbe:	00db      	lsls	r3, r3, #3
   50cc0:	440b      	add	r3, r1
   50cc2:	3320      	adds	r3, #32
   50cc4:	685a      	ldr	r2, [r3, #4]
   50cc6:	69fb      	ldr	r3, [r7, #28]
   50cc8:	18d1      	adds	r1, r2, r3
   50cca:	4818      	ldr	r0, [pc, #96]	; (50d2c <SEGGER_RTT_Write+0x220>)
   50ccc:	68fa      	ldr	r2, [r7, #12]
   50cce:	4613      	mov	r3, r2
   50cd0:	005b      	lsls	r3, r3, #1
   50cd2:	4413      	add	r3, r2
   50cd4:	00db      	lsls	r3, r3, #3
   50cd6:	4403      	add	r3, r0
   50cd8:	3320      	adds	r3, #32
   50cda:	6059      	str	r1, [r3, #4]
   50cdc:	4913      	ldr	r1, [pc, #76]	; (50d2c <SEGGER_RTT_Write+0x220>)
   50cde:	68fa      	ldr	r2, [r7, #12]
   50ce0:	4613      	mov	r3, r2
   50ce2:	005b      	lsls	r3, r3, #1
   50ce4:	4413      	add	r3, r2
   50ce6:	00db      	lsls	r3, r3, #3
   50ce8:	440b      	add	r3, r1
   50cea:	3320      	adds	r3, #32
   50cec:	6859      	ldr	r1, [r3, #4]
   50cee:	480f      	ldr	r0, [pc, #60]	; (50d2c <SEGGER_RTT_Write+0x220>)
   50cf0:	68fa      	ldr	r2, [r7, #12]
   50cf2:	4613      	mov	r3, r2
   50cf4:	005b      	lsls	r3, r3, #1
   50cf6:	4413      	add	r3, r2
   50cf8:	00db      	lsls	r3, r3, #3
   50cfa:	4403      	add	r3, r0
   50cfc:	3320      	adds	r3, #32
   50cfe:	681b      	ldr	r3, [r3, #0]
   50d00:	4299      	cmp	r1, r3
   50d02:	d109      	bne.n	50d18 <SEGGER_RTT_Write+0x20c>
   50d04:	4909      	ldr	r1, [pc, #36]	; (50d2c <SEGGER_RTT_Write+0x220>)
   50d06:	68fa      	ldr	r2, [r7, #12]
   50d08:	4613      	mov	r3, r2
   50d0a:	005b      	lsls	r3, r3, #1
   50d0c:	4413      	add	r3, r2
   50d0e:	00db      	lsls	r3, r3, #3
   50d10:	440b      	add	r3, r1
   50d12:	3320      	adds	r3, #32
   50d14:	2200      	movs	r2, #0
   50d16:	605a      	str	r2, [r3, #4]
   50d18:	687b      	ldr	r3, [r7, #4]
   50d1a:	2b00      	cmp	r3, #0
   50d1c:	f47f af4d 	bne.w	50bba <SEGGER_RTT_Write+0xae>
   50d20:	69bb      	ldr	r3, [r7, #24]
   50d22:	4618      	mov	r0, r3
   50d24:	3720      	adds	r7, #32
   50d26:	46bd      	mov	sp, r7
   50d28:	bd80      	pop	{r7, pc}
   50d2a:	bf00      	nop
   50d2c:	20005000 	.word	0x20005000

00050d30 <SEGGER_RTT_WriteString>:
   50d30:	b580      	push	{r7, lr}
   50d32:	b084      	sub	sp, #16
   50d34:	af00      	add	r7, sp, #0
   50d36:	6078      	str	r0, [r7, #4]
   50d38:	6039      	str	r1, [r7, #0]
   50d3a:	6838      	ldr	r0, [r7, #0]
   50d3c:	f7ff fe1a 	bl	50974 <_strlen>
   50d40:	60f8      	str	r0, [r7, #12]
   50d42:	68fb      	ldr	r3, [r7, #12]
   50d44:	6878      	ldr	r0, [r7, #4]
   50d46:	6839      	ldr	r1, [r7, #0]
   50d48:	461a      	mov	r2, r3
   50d4a:	f7ff fedf 	bl	50b0c <SEGGER_RTT_Write>
   50d4e:	4603      	mov	r3, r0
   50d50:	4618      	mov	r0, r3
   50d52:	3710      	adds	r7, #16
   50d54:	46bd      	mov	sp, r7
   50d56:	bd80      	pop	{r7, pc}

00050d58 <SEGGER_RTT_GetKey>:
   50d58:	b580      	push	{r7, lr}
   50d5a:	b082      	sub	sp, #8
   50d5c:	af00      	add	r7, sp, #0
   50d5e:	1cfb      	adds	r3, r7, #3
   50d60:	2000      	movs	r0, #0
   50d62:	4619      	mov	r1, r3
   50d64:	2201      	movs	r2, #1
   50d66:	f7ff fe2b 	bl	509c0 <SEGGER_RTT_Read>
   50d6a:	6078      	str	r0, [r7, #4]
   50d6c:	687b      	ldr	r3, [r7, #4]
   50d6e:	2b01      	cmp	r3, #1
   50d70:	d101      	bne.n	50d76 <SEGGER_RTT_GetKey+0x1e>
   50d72:	78fb      	ldrb	r3, [r7, #3]
   50d74:	e001      	b.n	50d7a <SEGGER_RTT_GetKey+0x22>
   50d76:	f04f 33ff 	mov.w	r3, #4294967295
   50d7a:	4618      	mov	r0, r3
   50d7c:	3708      	adds	r7, #8
   50d7e:	46bd      	mov	sp, r7
   50d80:	bd80      	pop	{r7, pc}
   50d82:	bf00      	nop

00050d84 <SEGGER_RTT_WaitKey>:
   50d84:	b580      	push	{r7, lr}
   50d86:	b082      	sub	sp, #8
   50d88:	af00      	add	r7, sp, #0
   50d8a:	f7ff ffe5 	bl	50d58 <SEGGER_RTT_GetKey>
   50d8e:	6078      	str	r0, [r7, #4]
   50d90:	687b      	ldr	r3, [r7, #4]
   50d92:	2b00      	cmp	r3, #0
   50d94:	dbf9      	blt.n	50d8a <SEGGER_RTT_WaitKey+0x6>
   50d96:	687b      	ldr	r3, [r7, #4]
   50d98:	4618      	mov	r0, r3
   50d9a:	3708      	adds	r7, #8
   50d9c:	46bd      	mov	sp, r7
   50d9e:	bd80      	pop	{r7, pc}

00050da0 <SEGGER_RTT_HasKey>:
   50da0:	b580      	push	{r7, lr}
   50da2:	b082      	sub	sp, #8
   50da4:	af00      	add	r7, sp, #0
   50da6:	f7ff fe05 	bl	509b4 <_Init>
   50daa:	4b07      	ldr	r3, [pc, #28]	; (50dc8 <SEGGER_RTT_HasKey+0x28>)
   50dac:	6d9b      	ldr	r3, [r3, #88]	; 0x58
   50dae:	607b      	str	r3, [r7, #4]
   50db0:	4b05      	ldr	r3, [pc, #20]	; (50dc8 <SEGGER_RTT_HasKey+0x28>)
   50db2:	6d5a      	ldr	r2, [r3, #84]	; 0x54
   50db4:	687b      	ldr	r3, [r7, #4]
   50db6:	429a      	cmp	r2, r3
   50db8:	d001      	beq.n	50dbe <SEGGER_RTT_HasKey+0x1e>
   50dba:	2301      	movs	r3, #1
   50dbc:	e000      	b.n	50dc0 <SEGGER_RTT_HasKey+0x20>
   50dbe:	2300      	movs	r3, #0
   50dc0:	4618      	mov	r0, r3
   50dc2:	3708      	adds	r7, #8
   50dc4:	46bd      	mov	sp, r7
   50dc6:	bd80      	pop	{r7, pc}
   50dc8:	20005000 	.word	0x20005000

00050dcc <SEGGER_RTT_ConfigUpBuffer>:
   50dcc:	b580      	push	{r7, lr}
   50dce:	b084      	sub	sp, #16
   50dd0:	af00      	add	r7, sp, #0
   50dd2:	60f8      	str	r0, [r7, #12]
   50dd4:	60b9      	str	r1, [r7, #8]
   50dd6:	607a      	str	r2, [r7, #4]
   50dd8:	603b      	str	r3, [r7, #0]
   50dda:	f7ff fdeb 	bl	509b4 <_Init>
   50dde:	4b26      	ldr	r3, [pc, #152]	; (50e78 <SEGGER_RTT_ConfigUpBuffer+0xac>)
   50de0:	691b      	ldr	r3, [r3, #16]
   50de2:	461a      	mov	r2, r3
   50de4:	68fb      	ldr	r3, [r7, #12]
   50de6:	429a      	cmp	r2, r3
   50de8:	d940      	bls.n	50e6c <SEGGER_RTT_ConfigUpBuffer+0xa0>
   50dea:	68fb      	ldr	r3, [r7, #12]
   50dec:	2b00      	cmp	r3, #0
   50dee:	d031      	beq.n	50e54 <SEGGER_RTT_ConfigUpBuffer+0x88>
   50df0:	4921      	ldr	r1, [pc, #132]	; (50e78 <SEGGER_RTT_ConfigUpBuffer+0xac>)
   50df2:	68fb      	ldr	r3, [r7, #12]
   50df4:	1c5a      	adds	r2, r3, #1
   50df6:	4613      	mov	r3, r2
   50df8:	005b      	lsls	r3, r3, #1
   50dfa:	4413      	add	r3, r2
   50dfc:	00db      	lsls	r3, r3, #3
   50dfe:	440b      	add	r3, r1
   50e00:	68ba      	ldr	r2, [r7, #8]
   50e02:	601a      	str	r2, [r3, #0]
   50e04:	491c      	ldr	r1, [pc, #112]	; (50e78 <SEGGER_RTT_ConfigUpBuffer+0xac>)
   50e06:	68fb      	ldr	r3, [r7, #12]
   50e08:	1c5a      	adds	r2, r3, #1
   50e0a:	4613      	mov	r3, r2
   50e0c:	005b      	lsls	r3, r3, #1
   50e0e:	4413      	add	r3, r2
   50e10:	00db      	lsls	r3, r3, #3
   50e12:	440b      	add	r3, r1
   50e14:	687a      	ldr	r2, [r7, #4]
   50e16:	605a      	str	r2, [r3, #4]
   50e18:	4917      	ldr	r1, [pc, #92]	; (50e78 <SEGGER_RTT_ConfigUpBuffer+0xac>)
   50e1a:	68fa      	ldr	r2, [r7, #12]
   50e1c:	4613      	mov	r3, r2
   50e1e:	005b      	lsls	r3, r3, #1
   50e20:	4413      	add	r3, r2
   50e22:	00db      	lsls	r3, r3, #3
   50e24:	440b      	add	r3, r1
   50e26:	3320      	adds	r3, #32
   50e28:	683a      	ldr	r2, [r7, #0]
   50e2a:	601a      	str	r2, [r3, #0]
   50e2c:	4912      	ldr	r1, [pc, #72]	; (50e78 <SEGGER_RTT_ConfigUpBuffer+0xac>)
   50e2e:	68fa      	ldr	r2, [r7, #12]
   50e30:	4613      	mov	r3, r2
   50e32:	005b      	lsls	r3, r3, #1
   50e34:	4413      	add	r3, r2
   50e36:	00db      	lsls	r3, r3, #3
   50e38:	440b      	add	r3, r1
   50e3a:	3328      	adds	r3, #40	; 0x28
   50e3c:	2200      	movs	r2, #0
   50e3e:	601a      	str	r2, [r3, #0]
   50e40:	490d      	ldr	r1, [pc, #52]	; (50e78 <SEGGER_RTT_ConfigUpBuffer+0xac>)
   50e42:	68fa      	ldr	r2, [r7, #12]
   50e44:	4613      	mov	r3, r2
   50e46:	005b      	lsls	r3, r3, #1
   50e48:	4413      	add	r3, r2
   50e4a:	00db      	lsls	r3, r3, #3
   50e4c:	440b      	add	r3, r1
   50e4e:	3320      	adds	r3, #32
   50e50:	2200      	movs	r2, #0
   50e52:	605a      	str	r2, [r3, #4]
   50e54:	4908      	ldr	r1, [pc, #32]	; (50e78 <SEGGER_RTT_ConfigUpBuffer+0xac>)
   50e56:	68fa      	ldr	r2, [r7, #12]
   50e58:	4613      	mov	r3, r2
   50e5a:	005b      	lsls	r3, r3, #1
   50e5c:	4413      	add	r3, r2
   50e5e:	00db      	lsls	r3, r3, #3
   50e60:	440b      	add	r3, r1
   50e62:	3328      	adds	r3, #40	; 0x28
   50e64:	69ba      	ldr	r2, [r7, #24]
   50e66:	605a      	str	r2, [r3, #4]
   50e68:	2300      	movs	r3, #0
   50e6a:	e001      	b.n	50e70 <SEGGER_RTT_ConfigUpBuffer+0xa4>
   50e6c:	f04f 33ff 	mov.w	r3, #4294967295
   50e70:	4618      	mov	r0, r3
   50e72:	3710      	adds	r7, #16
   50e74:	46bd      	mov	sp, r7
   50e76:	bd80      	pop	{r7, pc}
   50e78:	20005000 	.word	0x20005000

00050e7c <SEGGER_RTT_ConfigDownBuffer>:
   50e7c:	b580      	push	{r7, lr}
   50e7e:	b084      	sub	sp, #16
   50e80:	af00      	add	r7, sp, #0
   50e82:	60f8      	str	r0, [r7, #12]
   50e84:	60b9      	str	r1, [r7, #8]
   50e86:	607a      	str	r2, [r7, #4]
   50e88:	603b      	str	r3, [r7, #0]
   50e8a:	f7ff fd93 	bl	509b4 <_Init>
   50e8e:	4b26      	ldr	r3, [pc, #152]	; (50f28 <SEGGER_RTT_ConfigDownBuffer+0xac>)
   50e90:	695b      	ldr	r3, [r3, #20]
   50e92:	461a      	mov	r2, r3
   50e94:	68fb      	ldr	r3, [r7, #12]
   50e96:	429a      	cmp	r2, r3
   50e98:	d940      	bls.n	50f1c <SEGGER_RTT_ConfigDownBuffer+0xa0>
   50e9a:	68fb      	ldr	r3, [r7, #12]
   50e9c:	2b00      	cmp	r3, #0
   50e9e:	d031      	beq.n	50f04 <SEGGER_RTT_ConfigDownBuffer+0x88>
   50ea0:	4921      	ldr	r1, [pc, #132]	; (50f28 <SEGGER_RTT_ConfigDownBuffer+0xac>)
   50ea2:	68fa      	ldr	r2, [r7, #12]
   50ea4:	4613      	mov	r3, r2
   50ea6:	005b      	lsls	r3, r3, #1
   50ea8:	4413      	add	r3, r2
   50eaa:	00db      	lsls	r3, r3, #3
   50eac:	440b      	add	r3, r1
   50eae:	3348      	adds	r3, #72	; 0x48
   50eb0:	68ba      	ldr	r2, [r7, #8]
   50eb2:	601a      	str	r2, [r3, #0]
   50eb4:	491c      	ldr	r1, [pc, #112]	; (50f28 <SEGGER_RTT_ConfigDownBuffer+0xac>)
   50eb6:	68fa      	ldr	r2, [r7, #12]
   50eb8:	4613      	mov	r3, r2
   50eba:	005b      	lsls	r3, r3, #1
   50ebc:	4413      	add	r3, r2
   50ebe:	00db      	lsls	r3, r3, #3
   50ec0:	440b      	add	r3, r1
   50ec2:	3348      	adds	r3, #72	; 0x48
   50ec4:	687a      	ldr	r2, [r7, #4]
   50ec6:	605a      	str	r2, [r3, #4]
   50ec8:	4917      	ldr	r1, [pc, #92]	; (50f28 <SEGGER_RTT_ConfigDownBuffer+0xac>)
   50eca:	68fa      	ldr	r2, [r7, #12]
   50ecc:	4613      	mov	r3, r2
   50ece:	005b      	lsls	r3, r3, #1
   50ed0:	4413      	add	r3, r2
   50ed2:	00db      	lsls	r3, r3, #3
   50ed4:	440b      	add	r3, r1
   50ed6:	3350      	adds	r3, #80	; 0x50
   50ed8:	683a      	ldr	r2, [r7, #0]
   50eda:	601a      	str	r2, [r3, #0]
   50edc:	4912      	ldr	r1, [pc, #72]	; (50f28 <SEGGER_RTT_ConfigDownBuffer+0xac>)
   50ede:	68fa      	ldr	r2, [r7, #12]
   50ee0:	4613      	mov	r3, r2
   50ee2:	005b      	lsls	r3, r3, #1
   50ee4:	4413      	add	r3, r2
   50ee6:	00db      	lsls	r3, r3, #3
   50ee8:	440b      	add	r3, r1
   50eea:	3358      	adds	r3, #88	; 0x58
   50eec:	2200      	movs	r2, #0
   50eee:	601a      	str	r2, [r3, #0]
   50ef0:	490d      	ldr	r1, [pc, #52]	; (50f28 <SEGGER_RTT_ConfigDownBuffer+0xac>)
   50ef2:	68fa      	ldr	r2, [r7, #12]
   50ef4:	4613      	mov	r3, r2
   50ef6:	005b      	lsls	r3, r3, #1
   50ef8:	4413      	add	r3, r2
   50efa:	00db      	lsls	r3, r3, #3
   50efc:	440b      	add	r3, r1
   50efe:	3350      	adds	r3, #80	; 0x50
   50f00:	2200      	movs	r2, #0
   50f02:	605a      	str	r2, [r3, #4]
   50f04:	4908      	ldr	r1, [pc, #32]	; (50f28 <SEGGER_RTT_ConfigDownBuffer+0xac>)
   50f06:	68fa      	ldr	r2, [r7, #12]
   50f08:	4613      	mov	r3, r2
   50f0a:	005b      	lsls	r3, r3, #1
   50f0c:	4413      	add	r3, r2
   50f0e:	00db      	lsls	r3, r3, #3
   50f10:	440b      	add	r3, r1
   50f12:	3358      	adds	r3, #88	; 0x58
   50f14:	69ba      	ldr	r2, [r7, #24]
   50f16:	605a      	str	r2, [r3, #4]
   50f18:	2300      	movs	r3, #0
   50f1a:	e001      	b.n	50f20 <SEGGER_RTT_ConfigDownBuffer+0xa4>
   50f1c:	f04f 33ff 	mov.w	r3, #4294967295
   50f20:	4618      	mov	r0, r3
   50f22:	3710      	adds	r7, #16
   50f24:	46bd      	mov	sp, r7
   50f26:	bd80      	pop	{r7, pc}
   50f28:	20005000 	.word	0x20005000

00050f2c <SEGGER_RTT_Init>:
   50f2c:	b580      	push	{r7, lr}
   50f2e:	af00      	add	r7, sp, #0
   50f30:	f7ff fd40 	bl	509b4 <_Init>
   50f34:	bd80      	pop	{r7, pc}
   50f36:	bf00      	nop

00050f38 <SEGGER_RTT_SetTerminal>:
   50f38:	b580      	push	{r7, lr}
   50f3a:	b084      	sub	sp, #16
   50f3c:	af00      	add	r7, sp, #0
   50f3e:	4603      	mov	r3, r0
   50f40:	71fb      	strb	r3, [r7, #7]
   50f42:	23ff      	movs	r3, #255	; 0xff
   50f44:	733b      	strb	r3, [r7, #12]
   50f46:	79fb      	ldrb	r3, [r7, #7]
   50f48:	2b09      	cmp	r3, #9
   50f4a:	d804      	bhi.n	50f56 <SEGGER_RTT_SetTerminal+0x1e>
   50f4c:	79fb      	ldrb	r3, [r7, #7]
   50f4e:	3330      	adds	r3, #48	; 0x30
   50f50:	b2db      	uxtb	r3, r3
   50f52:	737b      	strb	r3, [r7, #13]
   50f54:	e006      	b.n	50f64 <SEGGER_RTT_SetTerminal+0x2c>
   50f56:	79fb      	ldrb	r3, [r7, #7]
   50f58:	2b0f      	cmp	r3, #15
   50f5a:	d80d      	bhi.n	50f78 <SEGGER_RTT_SetTerminal+0x40>
   50f5c:	79fb      	ldrb	r3, [r7, #7]
   50f5e:	3337      	adds	r3, #55	; 0x37
   50f60:	b2db      	uxtb	r3, r3
   50f62:	737b      	strb	r3, [r7, #13]
   50f64:	4a06      	ldr	r2, [pc, #24]	; (50f80 <SEGGER_RTT_SetTerminal+0x48>)
   50f66:	79fb      	ldrb	r3, [r7, #7]
   50f68:	7013      	strb	r3, [r2, #0]
   50f6a:	f107 030c 	add.w	r3, r7, #12
   50f6e:	2000      	movs	r0, #0
   50f70:	4619      	mov	r1, r3
   50f72:	2202      	movs	r2, #2
   50f74:	f7ff fdca 	bl	50b0c <SEGGER_RTT_Write>
   50f78:	3710      	adds	r7, #16
   50f7a:	46bd      	mov	sp, r7
   50f7c:	bd80      	pop	{r7, pc}
   50f7e:	bf00      	nop
   50f80:	200054d8 	.word	0x200054d8

00050f84 <SEGGER_RTT_TerminalOut>:
   50f84:	b580      	push	{r7, lr}
   50f86:	b084      	sub	sp, #16
   50f88:	af00      	add	r7, sp, #0
   50f8a:	4603      	mov	r3, r0
   50f8c:	6039      	str	r1, [r7, #0]
   50f8e:	71fb      	strb	r3, [r7, #7]
   50f90:	23ff      	movs	r3, #255	; 0xff
   50f92:	723b      	strb	r3, [r7, #8]
   50f94:	79fb      	ldrb	r3, [r7, #7]
   50f96:	2b09      	cmp	r3, #9
   50f98:	d804      	bhi.n	50fa4 <SEGGER_RTT_TerminalOut+0x20>
   50f9a:	79fb      	ldrb	r3, [r7, #7]
   50f9c:	3330      	adds	r3, #48	; 0x30
   50f9e:	b2db      	uxtb	r3, r3
   50fa0:	727b      	strb	r3, [r7, #9]
   50fa2:	e00a      	b.n	50fba <SEGGER_RTT_TerminalOut+0x36>
   50fa4:	79fb      	ldrb	r3, [r7, #7]
   50fa6:	2b0f      	cmp	r3, #15
   50fa8:	d804      	bhi.n	50fb4 <SEGGER_RTT_TerminalOut+0x30>
   50faa:	79fb      	ldrb	r3, [r7, #7]
   50fac:	3337      	adds	r3, #55	; 0x37
   50fae:	b2db      	uxtb	r3, r3
   50fb0:	727b      	strb	r3, [r7, #9]
   50fb2:	e002      	b.n	50fba <SEGGER_RTT_TerminalOut+0x36>
   50fb4:	f04f 33ff 	mov.w	r3, #4294967295
   50fb8:	e024      	b.n	51004 <SEGGER_RTT_TerminalOut+0x80>
   50fba:	f107 0308 	add.w	r3, r7, #8
   50fbe:	2000      	movs	r0, #0
   50fc0:	4619      	mov	r1, r3
   50fc2:	2202      	movs	r2, #2
   50fc4:	f7ff fda2 	bl	50b0c <SEGGER_RTT_Write>
   50fc8:	2000      	movs	r0, #0
   50fca:	6839      	ldr	r1, [r7, #0]
   50fcc:	f7ff feb0 	bl	50d30 <SEGGER_RTT_WriteString>
   50fd0:	60f8      	str	r0, [r7, #12]
   50fd2:	79fb      	ldrb	r3, [r7, #7]
   50fd4:	2b09      	cmp	r3, #9
   50fd6:	d805      	bhi.n	50fe4 <SEGGER_RTT_TerminalOut+0x60>
   50fd8:	4b0c      	ldr	r3, [pc, #48]	; (5100c <SEGGER_RTT_TerminalOut+0x88>)
   50fda:	781b      	ldrb	r3, [r3, #0]
   50fdc:	3330      	adds	r3, #48	; 0x30
   50fde:	b2db      	uxtb	r3, r3
   50fe0:	727b      	strb	r3, [r7, #9]
   50fe2:	e007      	b.n	50ff4 <SEGGER_RTT_TerminalOut+0x70>
   50fe4:	79fb      	ldrb	r3, [r7, #7]
   50fe6:	2b0f      	cmp	r3, #15
   50fe8:	d804      	bhi.n	50ff4 <SEGGER_RTT_TerminalOut+0x70>
   50fea:	4b08      	ldr	r3, [pc, #32]	; (5100c <SEGGER_RTT_TerminalOut+0x88>)
   50fec:	781b      	ldrb	r3, [r3, #0]
   50fee:	3337      	adds	r3, #55	; 0x37
   50ff0:	b2db      	uxtb	r3, r3
   50ff2:	727b      	strb	r3, [r7, #9]
   50ff4:	f107 0308 	add.w	r3, r7, #8
   50ff8:	2000      	movs	r0, #0
   50ffa:	4619      	mov	r1, r3
   50ffc:	2202      	movs	r2, #2
   50ffe:	f7ff fd85 	bl	50b0c <SEGGER_RTT_Write>
   51002:	68fb      	ldr	r3, [r7, #12]
   51004:	4618      	mov	r0, r3
   51006:	3710      	adds	r7, #16
   51008:	46bd      	mov	sp, r7
   5100a:	bd80      	pop	{r7, pc}
   5100c:	200054d8 	.word	0x200054d8

00051010 <__sflush_r>:
   51010:	e92d40f8 	push	{r3, r4, r5, r6, r7, lr}
   51014:	e1d130bc 	ldrh	r3, [r1, #12]
   51018:	e3130008 	tst	r3, #8
   5101c:	e1a05001 	mov	r5, r1
   51020:	e1a07000 	mov	r7, r0
   51024:	1a000030 	bne	510ec <__sflush_r+0xdc>
   51028:	e5912004 	ldr	r2, [r1, #4]
   5102c:	e3833b02 	orr	r3, r3, #2048	; 0x800
   51030:	e3520000 	cmp	r2, #0
   51034:	e1c130bc 	strh	r3, [r1, #12]
   51038:	da00004b 	ble	5116c <__sflush_r+0x15c>
   5103c:	e595c02c 	ldr	ip, [r5, #44]	; 0x2c
   51040:	e35c0000 	cmp	ip, #0
   51044:	0a00004b 	beq	51178 <__sflush_r+0x168>
   51048:	e3a01000 	mov	r1, #0
   5104c:	e2136a01 	ands	r6, r3, #4096	; 0x1000
   51050:	e5974000 	ldr	r4, [r7]
   51054:	e5871000 	str	r1, [r7]
   51058:	0a000049 	beq	51184 <__sflush_r+0x174>
   5105c:	e5952054 	ldr	r2, [r5, #84]	; 0x54
   51060:	e3130004 	tst	r3, #4
   51064:	0a000005 	beq	51080 <__sflush_r+0x70>
   51068:	e5951034 	ldr	r1, [r5, #52]	; 0x34
   5106c:	e5953004 	ldr	r3, [r5, #4]
   51070:	e3510000 	cmp	r1, #0
   51074:	e0632002 	rsb	r2, r3, r2
   51078:	15953040 	ldrne	r3, [r5, #64]	; 0x40
   5107c:	10632002 	rsbne	r2, r3, r2
   51080:	e1a00007 	mov	r0, r7
   51084:	e5951020 	ldr	r1, [r5, #32]
   51088:	e3a03000 	mov	r3, #0
   5108c:	e1a0e00f 	mov	lr, pc
   51090:	e12fff1c 	bx	ip
   51094:	e3700001 	cmn	r0, #1
   51098:	0a000045 	beq	511b4 <__sflush_r+0x1a4>
   5109c:	e1d530bc 	ldrh	r3, [r5, #12]
   510a0:	e5951010 	ldr	r1, [r5, #16]
   510a4:	e3c33b02 	bic	r3, r3, #2048	; 0x800
   510a8:	e3a02000 	mov	r2, #0
   510ac:	e3130a01 	tst	r3, #4096	; 0x1000
   510b0:	e1c530bc 	strh	r3, [r5, #12]
   510b4:	e8850006 	stm	r5, {r1, r2}
   510b8:	1a000048 	bne	511e0 <__sflush_r+0x1d0>
   510bc:	e5951034 	ldr	r1, [r5, #52]	; 0x34
   510c0:	e3510000 	cmp	r1, #0
   510c4:	e5874000 	str	r4, [r7]
   510c8:	0a00002a 	beq	51178 <__sflush_r+0x168>
   510cc:	e2853044 	add	r3, r5, #68	; 0x44
   510d0:	e1510003 	cmp	r1, r3
   510d4:	11a00007 	movne	r0, r7
   510d8:	1b00023b 	blne	519cc <_free_r>
   510dc:	e3a00000 	mov	r0, #0
   510e0:	e5850034 	str	r0, [r5, #52]	; 0x34
   510e4:	e8bd40f8 	pop	{r3, r4, r5, r6, r7, lr}
   510e8:	e12fff1e 	bx	lr
   510ec:	e5916010 	ldr	r6, [r1, #16]
   510f0:	e3560000 	cmp	r6, #0
   510f4:	0a00001f 	beq	51178 <__sflush_r+0x168>
   510f8:	e5914000 	ldr	r4, [r1]
   510fc:	e3130003 	tst	r3, #3
   51100:	05913014 	ldreq	r3, [r1, #20]
   51104:	e0664004 	rsb	r4, r6, r4
   51108:	13a03000 	movne	r3, #0
   5110c:	e3540000 	cmp	r4, #0
   51110:	e5816000 	str	r6, [r1]
   51114:	e5813008 	str	r3, [r1, #8]
   51118:	ca000003 	bgt	5112c <__sflush_r+0x11c>
   5111c:	ea000015 	b	51178 <__sflush_r+0x168>
   51120:	e3540000 	cmp	r4, #0
   51124:	e0866000 	add	r6, r6, r0
   51128:	da000012 	ble	51178 <__sflush_r+0x168>
   5112c:	e1a03004 	mov	r3, r4
   51130:	e1a00007 	mov	r0, r7
   51134:	e5951020 	ldr	r1, [r5, #32]
   51138:	e1a02006 	mov	r2, r6
   5113c:	e595c028 	ldr	ip, [r5, #40]	; 0x28
   51140:	e1a0e00f 	mov	lr, pc
   51144:	e12fff1c 	bx	ip
   51148:	e3500000 	cmp	r0, #0
   5114c:	e0604004 	rsb	r4, r0, r4
   51150:	cafffff2 	bgt	51120 <__sflush_r+0x110>
   51154:	e1d530bc 	ldrh	r3, [r5, #12]
   51158:	e3833040 	orr	r3, r3, #64	; 0x40
   5115c:	e1c530bc 	strh	r3, [r5, #12]
   51160:	e3e00000 	mvn	r0, #0
   51164:	e8bd40f8 	pop	{r3, r4, r5, r6, r7, lr}
   51168:	e12fff1e 	bx	lr
   5116c:	e5912040 	ldr	r2, [r1, #64]	; 0x40
   51170:	e3520000 	cmp	r2, #0
   51174:	caffffb0 	bgt	5103c <__sflush_r+0x2c>
   51178:	e3a00000 	mov	r0, #0
   5117c:	e8bd40f8 	pop	{r3, r4, r5, r6, r7, lr}
   51180:	e12fff1e 	bx	lr
   51184:	e1a02006 	mov	r2, r6
   51188:	e1a00007 	mov	r0, r7
   5118c:	e5951020 	ldr	r1, [r5, #32]
   51190:	e3a03001 	mov	r3, #1
   51194:	e1a0e00f 	mov	lr, pc
   51198:	e12fff1c 	bx	ip
   5119c:	e3700001 	cmn	r0, #1
   511a0:	e1a02000 	mov	r2, r0
   511a4:	0a00001a 	beq	51214 <__sflush_r+0x204>
   511a8:	e1d530bc 	ldrh	r3, [r5, #12]
   511ac:	e595c02c 	ldr	ip, [r5, #44]	; 0x2c
   511b0:	eaffffaa 	b	51060 <__sflush_r+0x50>
   511b4:	e5973000 	ldr	r3, [r7]
   511b8:	e3530000 	cmp	r3, #0
   511bc:	1a000009 	bne	511e8 <__sflush_r+0x1d8>
   511c0:	e1d520bc 	ldrh	r2, [r5, #12]
   511c4:	e5951010 	ldr	r1, [r5, #16]
   511c8:	e3c22b02 	bic	r2, r2, #2048	; 0x800
   511cc:	e3120a01 	tst	r2, #4096	; 0x1000
   511d0:	e5853004 	str	r3, [r5, #4]
   511d4:	e1c520bc 	strh	r2, [r5, #12]
   511d8:	e5851000 	str	r1, [r5]
   511dc:	0affffb6 	beq	510bc <__sflush_r+0xac>
   511e0:	e5850054 	str	r0, [r5, #84]	; 0x54
   511e4:	eaffffb4 	b	510bc <__sflush_r+0xac>
   511e8:	e353001d 	cmp	r3, #29
   511ec:	0a000001 	beq	511f8 <__sflush_r+0x1e8>
   511f0:	e3530016 	cmp	r3, #22
   511f4:	1a000012 	bne	51244 <__sflush_r+0x234>
   511f8:	e1d510bc 	ldrh	r1, [r5, #12]
   511fc:	e5952010 	ldr	r2, [r5, #16]
   51200:	e3c11b02 	bic	r1, r1, #2048	; 0x800
   51204:	e3a03000 	mov	r3, #0
   51208:	e1c510bc 	strh	r1, [r5, #12]
   5120c:	e885000c 	stm	r5, {r2, r3}
   51210:	eaffffa9 	b	510bc <__sflush_r+0xac>
   51214:	e5973000 	ldr	r3, [r7]
   51218:	e3530000 	cmp	r3, #0
   5121c:	0affffe1 	beq	511a8 <__sflush_r+0x198>
   51220:	e353001d 	cmp	r3, #29
   51224:	13530016 	cmpne	r3, #22
   51228:	11d530bc 	ldrhne	r3, [r5, #12]
   5122c:	13833040 	orrne	r3, r3, #64	; 0x40
   51230:	05874000 	streq	r4, [r7]
   51234:	01a00006 	moveq	r0, r6
   51238:	11a00002 	movne	r0, r2
   5123c:	11c530bc 	strhne	r3, [r5, #12]
   51240:	eaffffc7 	b	51164 <__sflush_r+0x154>
   51244:	e1d530bc 	ldrh	r3, [r5, #12]
   51248:	e3833040 	orr	r3, r3, #64	; 0x40
   5124c:	e1c530bc 	strh	r3, [r5, #12]
   51250:	eaffffc3 	b	51164 <__sflush_r+0x154>

00051254 <_fflush_r>:
   51254:	e92d4010 	push	{r4, lr}
   51258:	e5913010 	ldr	r3, [r1, #16]
   5125c:	e3530000 	cmp	r3, #0
   51260:	e24dd008 	sub	sp, sp, #8
   51264:	e1a04000 	mov	r4, r0
   51268:	0a000012 	beq	512b8 <_fflush_r+0x64>
   5126c:	e3500000 	cmp	r0, #0
   51270:	0a000002 	beq	51280 <_fflush_r+0x2c>
   51274:	e5903018 	ldr	r3, [r0, #24]
   51278:	e3530000 	cmp	r3, #0
   5127c:	0a000015 	beq	512d8 <_fflush_r+0x84>
   51280:	e59f3060 	ldr	r3, [pc, #96]	; 512e8 <_fflush_r+0x94>
   51284:	e1510003 	cmp	r1, r3
   51288:	05941004 	ldreq	r1, [r4, #4]
   5128c:	0a000006 	beq	512ac <_fflush_r+0x58>
   51290:	e59f3054 	ldr	r3, [pc, #84]	; 512ec <_fflush_r+0x98>
   51294:	e1510003 	cmp	r1, r3
   51298:	05941008 	ldreq	r1, [r4, #8]
   5129c:	0a000002 	beq	512ac <_fflush_r+0x58>
   512a0:	e59f3048 	ldr	r3, [pc, #72]	; 512f0 <_fflush_r+0x9c>
   512a4:	e1510003 	cmp	r1, r3
   512a8:	0594100c 	ldreq	r1, [r4, #12]
   512ac:	e1d130fc 	ldrsh	r3, [r1, #12]
   512b0:	e3530000 	cmp	r3, #0
   512b4:	1a000003 	bne	512c8 <_fflush_r+0x74>
   512b8:	e3a00000 	mov	r0, #0
   512bc:	e28dd008 	add	sp, sp, #8
   512c0:	e8bd4010 	pop	{r4, lr}
   512c4:	e12fff1e 	bx	lr
   512c8:	e1a00004 	mov	r0, r4
   512cc:	e28dd008 	add	sp, sp, #8
   512d0:	e8bd4010 	pop	{r4, lr}
   512d4:	eaffff4d 	b	51010 <__sflush_r>
   512d8:	e58d1004 	str	r1, [sp, #4]
   512dc:	eb000036 	bl	513bc <__sinit>
   512e0:	e59d1004 	ldr	r1, [sp, #4]
   512e4:	eaffffe5 	b	51280 <_fflush_r+0x2c>
   512e8:	00054858 	.word	0x00054858
   512ec:	00054838 	.word	0x00054838
   512f0:	00054818 	.word	0x00054818

000512f4 <fflush>:
   512f4:	e2501000 	subs	r1, r0, #0
   512f8:	e92d4008 	push	{r3, lr}
   512fc:	159f3020 	ldrne	r3, [pc, #32]	; 51324 <fflush+0x30>
   51300:	15930000 	ldrne	r0, [r3]
   51304:	18bd4008 	popne	{r3, lr}
   51308:	1affffd1 	bne	51254 <_fflush_r>
   5130c:	e59f3014 	ldr	r3, [pc, #20]	; 51328 <fflush+0x34>
   51310:	e59f1014 	ldr	r1, [pc, #20]	; 5132c <fflush+0x38>
   51314:	e5930000 	ldr	r0, [r3]
   51318:	eb0000ed 	bl	516d4 <_fwalk_reent>
   5131c:	e8bd4008 	pop	{r3, lr}
   51320:	e12fff1e 	bx	lr
   51324:	20005060 	.word	0x20005060
   51328:	00054878 	.word	0x00054878
   5132c:	00051254 	.word	0x00051254

00051330 <_cleanup_r>:
   51330:	e92d4008 	push	{r3, lr}
   51334:	e59f1008 	ldr	r1, [pc, #8]	; 51344 <_cleanup_r+0x14>
   51338:	eb0000e5 	bl	516d4 <_fwalk_reent>
   5133c:	e8bd4008 	pop	{r3, lr}
   51340:	e12fff1e 	bx	lr
   51344:	00051254 	.word	0x00051254

00051348 <__sfmoreglue>:
   51348:	e2413001 	sub	r3, r1, #1
   5134c:	e0833103 	add	r3, r3, r3, lsl #2
   51350:	e0833103 	add	r3, r3, r3, lsl #2
   51354:	e92d4070 	push	{r4, r5, r6, lr}
   51358:	e1a05103 	lsl	r5, r3, #2
   5135c:	e1a06001 	mov	r6, r1
   51360:	e2851070 	add	r1, r5, #112	; 0x70
   51364:	eb0001d8 	bl	51acc <_malloc_r>
   51368:	e2504000 	subs	r4, r0, #0
   5136c:	0a000006 	beq	5138c <__sfmoreglue+0x44>
   51370:	e3a01000 	mov	r1, #0
   51374:	e284000c 	add	r0, r4, #12
   51378:	e5846004 	str	r6, [r4, #4]
   5137c:	e2852064 	add	r2, r5, #100	; 0x64
   51380:	e5841000 	str	r1, [r4]
   51384:	e5840008 	str	r0, [r4, #8]
   51388:	eb000152 	bl	518d8 <memset>
   5138c:	e1a00004 	mov	r0, r4
   51390:	e8bd4070 	pop	{r4, r5, r6, lr}
   51394:	e12fff1e 	bx	lr

00051398 <_cleanup>:
   51398:	e92d4008 	push	{r3, lr}
   5139c:	e59f3010 	ldr	r3, [pc, #16]	; 513b4 <_cleanup+0x1c>
   513a0:	e59f1010 	ldr	r1, [pc, #16]	; 513b8 <_cleanup+0x20>
   513a4:	e5930000 	ldr	r0, [r3]
   513a8:	eb0000c9 	bl	516d4 <_fwalk_reent>
   513ac:	e8bd4008 	pop	{r3, lr}
   513b0:	e12fff1e 	bx	lr
   513b4:	00054878 	.word	0x00054878
   513b8:	00051254 	.word	0x00051254

000513bc <__sinit>:
   513bc:	e92d4ff0 	push	{r4, r5, r6, r7, r8, r9, sl, fp, lr}
   513c0:	e5903018 	ldr	r3, [r0, #24]
   513c4:	e3530000 	cmp	r3, #0
   513c8:	e24dd00c 	sub	sp, sp, #12
   513cc:	e1a05000 	mov	r5, r0
   513d0:	1a000057 	bne	51534 <__sinit+0x178>
   513d4:	e59f2164 	ldr	r2, [pc, #356]	; 51540 <__sinit+0x184>
   513d8:	e5921000 	ldr	r1, [r2]
   513dc:	e59f2160 	ldr	r2, [pc, #352]	; 51544 <__sinit+0x188>
   513e0:	e1500001 	cmp	r0, r1
   513e4:	e5803048 	str	r3, [r0, #72]	; 0x48
   513e8:	e580304c 	str	r3, [r0, #76]	; 0x4c
   513ec:	e5803050 	str	r3, [r0, #80]	; 0x50
   513f0:	03a03001 	moveq	r3, #1
   513f4:	05803018 	streq	r3, [r0, #24]
   513f8:	e5802028 	str	r2, [r0, #40]	; 0x28
   513fc:	eb000055 	bl	51558 <__sfp>
   51400:	e5850004 	str	r0, [r5, #4]
   51404:	e1a00005 	mov	r0, r5
   51408:	eb000052 	bl	51558 <__sfp>
   5140c:	e5850008 	str	r0, [r5, #8]
   51410:	e1a00005 	mov	r0, r5
   51414:	eb00004f 	bl	51558 <__sfp>
   51418:	e5956004 	ldr	r6, [r5, #4]
   5141c:	e3a04000 	mov	r4, #0
   51420:	e3a03004 	mov	r3, #4
   51424:	e585000c 	str	r0, [r5, #12]
   51428:	e1a01004 	mov	r1, r4
   5142c:	e1c630bc 	strh	r3, [r6, #12]
   51430:	e5864000 	str	r4, [r6]
   51434:	e5864004 	str	r4, [r6, #4]
   51438:	e5864008 	str	r4, [r6, #8]
   5143c:	e5864060 	str	r4, [r6, #96]	; 0x60
   51440:	e1c640be 	strh	r4, [r6, #14]
   51444:	e5864010 	str	r4, [r6, #16]
   51448:	e5864014 	str	r4, [r6, #20]
   5144c:	e5864018 	str	r4, [r6, #24]
   51450:	e2860058 	add	r0, r6, #88	; 0x58
   51454:	e3a02008 	mov	r2, #8
   51458:	eb00011e 	bl	518d8 <memset>
   5145c:	e59fb0e4 	ldr	fp, [pc, #228]	; 51548 <__sinit+0x18c>
   51460:	e5957008 	ldr	r7, [r5, #8]
   51464:	e59fa0e0 	ldr	sl, [pc, #224]	; 5154c <__sinit+0x190>
   51468:	e59f90e0 	ldr	r9, [pc, #224]	; 51550 <__sinit+0x194>
   5146c:	e59f80e0 	ldr	r8, [pc, #224]	; 51554 <__sinit+0x198>
   51470:	e3a03001 	mov	r3, #1
   51474:	e3a02009 	mov	r2, #9
   51478:	e5866020 	str	r6, [r6, #32]
   5147c:	e586b024 	str	fp, [r6, #36]	; 0x24
   51480:	e586a028 	str	sl, [r6, #40]	; 0x28
   51484:	e586902c 	str	r9, [r6, #44]	; 0x2c
   51488:	e5868030 	str	r8, [r6, #48]	; 0x30
   5148c:	e1a01004 	mov	r1, r4
   51490:	e1c730be 	strh	r3, [r7, #14]
   51494:	e1c720bc 	strh	r2, [r7, #12]
   51498:	e5874000 	str	r4, [r7]
   5149c:	e5874004 	str	r4, [r7, #4]
   514a0:	e5874008 	str	r4, [r7, #8]
   514a4:	e5874060 	str	r4, [r7, #96]	; 0x60
   514a8:	e5874010 	str	r4, [r7, #16]
   514ac:	e5874014 	str	r4, [r7, #20]
   514b0:	e5874018 	str	r4, [r7, #24]
   514b4:	e3a02008 	mov	r2, #8
   514b8:	e2870058 	add	r0, r7, #88	; 0x58
   514bc:	e58d3004 	str	r3, [sp, #4]
   514c0:	eb000104 	bl	518d8 <memset>
   514c4:	e595600c 	ldr	r6, [r5, #12]
   514c8:	e3a00012 	mov	r0, #18
   514cc:	e3a02002 	mov	r2, #2
   514d0:	e5877020 	str	r7, [r7, #32]
   514d4:	e587b024 	str	fp, [r7, #36]	; 0x24
   514d8:	e587a028 	str	sl, [r7, #40]	; 0x28
   514dc:	e587902c 	str	r9, [r7, #44]	; 0x2c
   514e0:	e5878030 	str	r8, [r7, #48]	; 0x30
   514e4:	e1a01004 	mov	r1, r4
   514e8:	e1c600bc 	strh	r0, [r6, #12]
   514ec:	e1c620be 	strh	r2, [r6, #14]
   514f0:	e5864000 	str	r4, [r6]
   514f4:	e5864004 	str	r4, [r6, #4]
   514f8:	e5864008 	str	r4, [r6, #8]
   514fc:	e5864060 	str	r4, [r6, #96]	; 0x60
   51500:	e5864010 	str	r4, [r6, #16]
   51504:	e5864014 	str	r4, [r6, #20]
   51508:	e5864018 	str	r4, [r6, #24]
   5150c:	e2860058 	add	r0, r6, #88	; 0x58
   51510:	e3a02008 	mov	r2, #8
   51514:	eb0000ef 	bl	518d8 <memset>
   51518:	e59d3004 	ldr	r3, [sp, #4]
   5151c:	e5866020 	str	r6, [r6, #32]
   51520:	e586b024 	str	fp, [r6, #36]	; 0x24
   51524:	e586a028 	str	sl, [r6, #40]	; 0x28
   51528:	e586902c 	str	r9, [r6, #44]	; 0x2c
   5152c:	e5868030 	str	r8, [r6, #48]	; 0x30
   51530:	e5853018 	str	r3, [r5, #24]
   51534:	e28dd00c 	add	sp, sp, #12
   51538:	e8bd4ff0 	pop	{r4, r5, r6, r7, r8, r9, sl, fp, lr}
   5153c:	e12fff1e 	bx	lr
   51540:	00054878 	.word	0x00054878
   51544:	00051330 	.word	0x00051330
   51548:	00051d0c 	.word	0x00051d0c
   5154c:	00051d48 	.word	0x00051d48
   51550:	00051da0 	.word	0x00051da0
   51554:	00051dd0 	.word	0x00051dd0

00051558 <__sfp>:
   51558:	e59f30ec 	ldr	r3, [pc, #236]	; 5164c <__sfp+0xf4>
   5155c:	e92d4070 	push	{r4, r5, r6, lr}
   51560:	e5935000 	ldr	r5, [r3]
   51564:	e5953018 	ldr	r3, [r5, #24]
   51568:	e3530000 	cmp	r3, #0
   5156c:	e1a06000 	mov	r6, r0
   51570:	0a00002f 	beq	51634 <__sfp+0xdc>
   51574:	e2855048 	add	r5, r5, #72	; 0x48
   51578:	e5953004 	ldr	r3, [r5, #4]
   5157c:	e2533001 	subs	r3, r3, #1
   51580:	e5954008 	ldr	r4, [r5, #8]
   51584:	5a000004 	bpl	5159c <__sfp+0x44>
   51588:	ea00001d 	b	51604 <__sfp+0xac>
   5158c:	e2433001 	sub	r3, r3, #1
   51590:	e3730001 	cmn	r3, #1
   51594:	e2844064 	add	r4, r4, #100	; 0x64
   51598:	0a000019 	beq	51604 <__sfp+0xac>
   5159c:	e1d420fc 	ldrsh	r2, [r4, #12]
   515a0:	e3520000 	cmp	r2, #0
   515a4:	1afffff8 	bne	5158c <__sfp+0x34>
   515a8:	e3a05000 	mov	r5, #0
   515ac:	e3e02000 	mvn	r2, #0
   515b0:	e3a03001 	mov	r3, #1
   515b4:	e1c420be 	strh	r2, [r4, #14]
   515b8:	e1c430bc 	strh	r3, [r4, #12]
   515bc:	e5845060 	str	r5, [r4, #96]	; 0x60
   515c0:	e5845000 	str	r5, [r4]
   515c4:	e5845008 	str	r5, [r4, #8]
   515c8:	e5845004 	str	r5, [r4, #4]
   515cc:	e5845010 	str	r5, [r4, #16]
   515d0:	e5845014 	str	r5, [r4, #20]
   515d4:	e5845018 	str	r5, [r4, #24]
   515d8:	e1a01005 	mov	r1, r5
   515dc:	e2840058 	add	r0, r4, #88	; 0x58
   515e0:	e3a02008 	mov	r2, #8
   515e4:	eb0000bb 	bl	518d8 <memset>
   515e8:	e5845034 	str	r5, [r4, #52]	; 0x34
   515ec:	e5845038 	str	r5, [r4, #56]	; 0x38
   515f0:	e5845048 	str	r5, [r4, #72]	; 0x48
   515f4:	e584504c 	str	r5, [r4, #76]	; 0x4c
   515f8:	e1a00004 	mov	r0, r4
   515fc:	e8bd4070 	pop	{r4, r5, r6, lr}
   51600:	e12fff1e 	bx	lr
   51604:	e5953000 	ldr	r3, [r5]
   51608:	e3530000 	cmp	r3, #0
   5160c:	11a05003 	movne	r5, r3
   51610:	1affffd8 	bne	51578 <__sfp+0x20>
   51614:	e1a00006 	mov	r0, r6
   51618:	e3a01004 	mov	r1, #4
   5161c:	ebffff49 	bl	51348 <__sfmoreglue>
   51620:	e3500000 	cmp	r0, #0
   51624:	e5850000 	str	r0, [r5]
   51628:	0a000004 	beq	51640 <__sfp+0xe8>
   5162c:	e1a05000 	mov	r5, r0
   51630:	eaffffd0 	b	51578 <__sfp+0x20>
   51634:	e1a00005 	mov	r0, r5
   51638:	ebffff5f 	bl	513bc <__sinit>
   5163c:	eaffffcc 	b	51574 <__sfp+0x1c>
   51640:	e3a0300c 	mov	r3, #12
   51644:	e5863000 	str	r3, [r6]
   51648:	eaffffeb 	b	515fc <__sfp+0xa4>
   5164c:	00054878 	.word	0x00054878

00051650 <_fwalk>:
   51650:	e92d41f0 	push	{r4, r5, r6, r7, r8, lr}
   51654:	e2907048 	adds	r7, r0, #72	; 0x48
   51658:	e1a08001 	mov	r8, r1
   5165c:	0a000018 	beq	516c4 <_fwalk+0x74>
   51660:	e3a06000 	mov	r6, #0
   51664:	e5975004 	ldr	r5, [r7, #4]
   51668:	e2555001 	subs	r5, r5, #1
   5166c:	e5974008 	ldr	r4, [r7, #8]
   51670:	4a00000d 	bmi	516ac <_fwalk+0x5c>
   51674:	e1d430bc 	ldrh	r3, [r4, #12]
   51678:	e3530001 	cmp	r3, #1
   5167c:	e2455001 	sub	r5, r5, #1
   51680:	9a000006 	bls	516a0 <_fwalk+0x50>
   51684:	e1d430fe 	ldrsh	r3, [r4, #14]
   51688:	e3730001 	cmn	r3, #1
   5168c:	e1a00004 	mov	r0, r4
   51690:	0a000002 	beq	516a0 <_fwalk+0x50>
   51694:	e1a0e00f 	mov	lr, pc
   51698:	e12fff18 	bx	r8
   5169c:	e1866000 	orr	r6, r6, r0
   516a0:	e3750001 	cmn	r5, #1
   516a4:	e2844064 	add	r4, r4, #100	; 0x64
   516a8:	1afffff1 	bne	51674 <_fwalk+0x24>
   516ac:	e5977000 	ldr	r7, [r7]
   516b0:	e3570000 	cmp	r7, #0
   516b4:	1affffea 	bne	51664 <_fwalk+0x14>
   516b8:	e1a00006 	mov	r0, r6
   516bc:	e8bd41f0 	pop	{r4, r5, r6, r7, r8, lr}
   516c0:	e12fff1e 	bx	lr
   516c4:	e1a06007 	mov	r6, r7
   516c8:	e1a00006 	mov	r0, r6
   516cc:	e8bd41f0 	pop	{r4, r5, r6, r7, r8, lr}
   516d0:	e12fff1e 	bx	lr

000516d4 <_fwalk_reent>:
   516d4:	e92d43f8 	push	{r3, r4, r5, r6, r7, r8, r9, lr}
   516d8:	e2908048 	adds	r8, r0, #72	; 0x48
   516dc:	e1a07000 	mov	r7, r0
   516e0:	e1a09001 	mov	r9, r1
   516e4:	0a000019 	beq	51750 <_fwalk_reent+0x7c>
   516e8:	e3a06000 	mov	r6, #0
   516ec:	e5985004 	ldr	r5, [r8, #4]
   516f0:	e2555001 	subs	r5, r5, #1
   516f4:	e5984008 	ldr	r4, [r8, #8]
   516f8:	4a00000e 	bmi	51738 <_fwalk_reent+0x64>
   516fc:	e1d430bc 	ldrh	r3, [r4, #12]
   51700:	e3530001 	cmp	r3, #1
   51704:	e2455001 	sub	r5, r5, #1
   51708:	9a000007 	bls	5172c <_fwalk_reent+0x58>
   5170c:	e1d430fe 	ldrsh	r3, [r4, #14]
   51710:	e3730001 	cmn	r3, #1
   51714:	e1a01004 	mov	r1, r4
   51718:	e1a00007 	mov	r0, r7
   5171c:	0a000002 	beq	5172c <_fwalk_reent+0x58>
   51720:	e1a0e00f 	mov	lr, pc
   51724:	e12fff19 	bx	r9
   51728:	e1866000 	orr	r6, r6, r0
   5172c:	e3750001 	cmn	r5, #1
   51730:	e2844064 	add	r4, r4, #100	; 0x64
   51734:	1afffff0 	bne	516fc <_fwalk_reent+0x28>
   51738:	e5988000 	ldr	r8, [r8]
   5173c:	e3580000 	cmp	r8, #0
   51740:	1affffe9 	bne	516ec <_fwalk_reent+0x18>
   51744:	e1a00006 	mov	r0, r6
   51748:	e8bd43f8 	pop	{r3, r4, r5, r6, r7, r8, r9, lr}
   5174c:	e12fff1e 	bx	lr
   51750:	e1a06008 	mov	r6, r8
   51754:	e1a00006 	mov	r0, r6
   51758:	e8bd43f8 	pop	{r3, r4, r5, r6, r7, r8, r9, lr}
   5175c:	e12fff1e 	bx	lr

00051760 <__libc_init_array>:
   51760:	e92d4070 	push	{r4, r5, r6, lr}
   51764:	e59f506c 	ldr	r5, [pc, #108]	; 517d8 <__libc_init_array+0x78>
   51768:	e59f606c 	ldr	r6, [pc, #108]	; 517dc <__libc_init_array+0x7c>
   5176c:	e0656006 	rsb	r6, r5, r6
   51770:	e1b06146 	asrs	r6, r6, #2
   51774:	12455004 	subne	r5, r5, #4
   51778:	13a04000 	movne	r4, #0
   5177c:	0a000005 	beq	51798 <__libc_init_array+0x38>
   51780:	e2844001 	add	r4, r4, #1
   51784:	e5b53004 	ldr	r3, [r5, #4]!
   51788:	e1a0e00f 	mov	lr, pc
   5178c:	e12fff13 	bx	r3
   51790:	e1560004 	cmp	r6, r4
   51794:	1afffff9 	bne	51780 <__libc_init_array+0x20>
   51798:	e59f5040 	ldr	r5, [pc, #64]	; 517e0 <__libc_init_array+0x80>
   5179c:	e59f6040 	ldr	r6, [pc, #64]	; 517e4 <__libc_init_array+0x84>
   517a0:	e0656006 	rsb	r6, r5, r6
   517a4:	fafffaa0 	blx	5022c <_init>
   517a8:	e1b06146 	asrs	r6, r6, #2
   517ac:	12455004 	subne	r5, r5, #4
   517b0:	13a04000 	movne	r4, #0
   517b4:	0a000005 	beq	517d0 <__libc_init_array+0x70>
   517b8:	e2844001 	add	r4, r4, #1
   517bc:	e5b53004 	ldr	r3, [r5, #4]!
   517c0:	e1a0e00f 	mov	lr, pc
   517c4:	e12fff13 	bx	r3
   517c8:	e1560004 	cmp	r6, r4
   517cc:	1afffff9 	bne	517b8 <__libc_init_array+0x58>
   517d0:	e8bd4070 	pop	{r4, r5, r6, lr}
   517d4:	e12fff1e 	bx	lr
   517d8:	000548e0 	.word	0x000548e0
   517dc:	000548e0 	.word	0x000548e0
   517e0:	000548e0 	.word	0x000548e0
   517e4:	000548e0 	.word	0x000548e0

000517e8 <memcpy>:
   517e8:	e352000f 	cmp	r2, #15
   517ec:	e92d00f0 	push	{r4, r5, r6, r7}
   517f0:	9a00002a 	bls	518a0 <memcpy+0xb8>
   517f4:	e1803001 	orr	r3, r0, r1
   517f8:	e3130003 	tst	r3, #3
   517fc:	1a000031 	bne	518c8 <memcpy+0xe0>
   51800:	e2426010 	sub	r6, r2, #16
   51804:	e1a06226 	lsr	r6, r6, #4
   51808:	e0805206 	add	r5, r0, r6, lsl #4
   5180c:	e2855010 	add	r5, r5, #16
   51810:	e1a0c001 	mov	ip, r1
   51814:	e1a03000 	mov	r3, r0
   51818:	e59c4000 	ldr	r4, [ip]
   5181c:	e5834000 	str	r4, [r3]
   51820:	e59c4004 	ldr	r4, [ip, #4]
   51824:	e5834004 	str	r4, [r3, #4]
   51828:	e59c4008 	ldr	r4, [ip, #8]
   5182c:	e5834008 	str	r4, [r3, #8]
   51830:	e59c400c 	ldr	r4, [ip, #12]
   51834:	e2833010 	add	r3, r3, #16
   51838:	e5034004 	str	r4, [r3, #-4]
   5183c:	e1530005 	cmp	r3, r5
   51840:	e28cc010 	add	ip, ip, #16
   51844:	1afffff3 	bne	51818 <memcpy+0x30>
   51848:	e2863001 	add	r3, r6, #1
   5184c:	e202700f 	and	r7, r2, #15
   51850:	e1a03203 	lsl	r3, r3, #4
   51854:	e3570003 	cmp	r7, #3
   51858:	e0811003 	add	r1, r1, r3
   5185c:	e0803003 	add	r3, r0, r3
   51860:	9a00001a 	bls	518d0 <memcpy+0xe8>
   51864:	e1a05001 	mov	r5, r1
   51868:	e1a04003 	mov	r4, r3
   5186c:	e1a0c007 	mov	ip, r7
   51870:	e24cc004 	sub	ip, ip, #4
   51874:	e4956004 	ldr	r6, [r5], #4
   51878:	e35c0003 	cmp	ip, #3
   5187c:	e4846004 	str	r6, [r4], #4
   51880:	8afffffa 	bhi	51870 <memcpy+0x88>
   51884:	e247c004 	sub	ip, r7, #4
   51888:	e3ccc003 	bic	ip, ip, #3
   5188c:	e28cc004 	add	ip, ip, #4
   51890:	e083300c 	add	r3, r3, ip
   51894:	e081100c 	add	r1, r1, ip
   51898:	e2022003 	and	r2, r2, #3
   5189c:	ea000000 	b	518a4 <memcpy+0xbc>
   518a0:	e1a03000 	mov	r3, r0
   518a4:	e3520000 	cmp	r2, #0
   518a8:	0a000004 	beq	518c0 <memcpy+0xd8>
   518ac:	e0812002 	add	r2, r1, r2
   518b0:	e4d1c001 	ldrb	ip, [r1], #1
   518b4:	e1510002 	cmp	r1, r2
   518b8:	e4c3c001 	strb	ip, [r3], #1
   518bc:	1afffffb 	bne	518b0 <memcpy+0xc8>
   518c0:	e8bd00f0 	pop	{r4, r5, r6, r7}
   518c4:	e12fff1e 	bx	lr
   518c8:	e1a03000 	mov	r3, r0
   518cc:	eafffff6 	b	518ac <memcpy+0xc4>
   518d0:	e1a02007 	mov	r2, r7
   518d4:	eafffff2 	b	518a4 <memcpy+0xbc>

000518d8 <memset>:
   518d8:	e3100003 	tst	r0, #3
   518dc:	e92d0070 	push	{r4, r5, r6}
   518e0:	0a000037 	beq	519c4 <memset+0xec>
   518e4:	e3520000 	cmp	r2, #0
   518e8:	e2422001 	sub	r2, r2, #1
   518ec:	0a000032 	beq	519bc <memset+0xe4>
   518f0:	e201c0ff 	and	ip, r1, #255	; 0xff
   518f4:	e1a03000 	mov	r3, r0
   518f8:	ea000002 	b	51908 <memset+0x30>
   518fc:	e3520000 	cmp	r2, #0
   51900:	e2422001 	sub	r2, r2, #1
   51904:	0a00002c 	beq	519bc <memset+0xe4>
   51908:	e4c3c001 	strb	ip, [r3], #1
   5190c:	e3130003 	tst	r3, #3
   51910:	1afffff9 	bne	518fc <memset+0x24>
   51914:	e3520003 	cmp	r2, #3
   51918:	9a000020 	bls	519a0 <memset+0xc8>
   5191c:	e20140ff 	and	r4, r1, #255	; 0xff
   51920:	e1844404 	orr	r4, r4, r4, lsl #8
   51924:	e352000f 	cmp	r2, #15
   51928:	e1844804 	orr	r4, r4, r4, lsl #16
   5192c:	9a000010 	bls	51974 <memset+0x9c>
   51930:	e2426010 	sub	r6, r2, #16
   51934:	e1a06226 	lsr	r6, r6, #4
   51938:	e2835010 	add	r5, r3, #16
   5193c:	e0855206 	add	r5, r5, r6, lsl #4
   51940:	e1a0c003 	mov	ip, r3
   51944:	e58c4000 	str	r4, [ip]
   51948:	e58c4004 	str	r4, [ip, #4]
   5194c:	e58c4008 	str	r4, [ip, #8]
   51950:	e58c400c 	str	r4, [ip, #12]
   51954:	e28cc010 	add	ip, ip, #16
   51958:	e15c0005 	cmp	ip, r5
   5195c:	1afffff8 	bne	51944 <memset+0x6c>
   51960:	e202200f 	and	r2, r2, #15
   51964:	e2866001 	add	r6, r6, #1
   51968:	e3520003 	cmp	r2, #3
   5196c:	e0833206 	add	r3, r3, r6, lsl #4
   51970:	9a00000a 	bls	519a0 <memset+0xc8>
   51974:	e1a05003 	mov	r5, r3
   51978:	e1a0c002 	mov	ip, r2
   5197c:	e24cc004 	sub	ip, ip, #4
   51980:	e35c0003 	cmp	ip, #3
   51984:	e4854004 	str	r4, [r5], #4
   51988:	8afffffb 	bhi	5197c <memset+0xa4>
   5198c:	e242c004 	sub	ip, r2, #4
   51990:	e3ccc003 	bic	ip, ip, #3
   51994:	e28cc004 	add	ip, ip, #4
   51998:	e083300c 	add	r3, r3, ip
   5199c:	e2022003 	and	r2, r2, #3
   519a0:	e3520000 	cmp	r2, #0
   519a4:	120110ff 	andne	r1, r1, #255	; 0xff
   519a8:	10832002 	addne	r2, r3, r2
   519ac:	0a000002 	beq	519bc <memset+0xe4>
   519b0:	e4c31001 	strb	r1, [r3], #1
   519b4:	e1530002 	cmp	r3, r2
   519b8:	1afffffc 	bne	519b0 <memset+0xd8>
   519bc:	e8bd0070 	pop	{r4, r5, r6}
   519c0:	e12fff1e 	bx	lr
   519c4:	e1a03000 	mov	r3, r0
   519c8:	eaffffd1 	b	51914 <memset+0x3c>

000519cc <_free_r>:
   519cc:	e3510000 	cmp	r1, #0
   519d0:	e52d4004 	push	{r4}		; (str r4, [sp, #-4]!)
   519d4:	0a00000f 	beq	51a18 <_free_r+0x4c>
   519d8:	e5113004 	ldr	r3, [r1, #-4]
   519dc:	e2411004 	sub	r1, r1, #4
   519e0:	e3530000 	cmp	r3, #0
   519e4:	b0811003 	addlt	r1, r1, r3
   519e8:	e59f30d8 	ldr	r3, [pc, #216]	; 51ac8 <_free_r+0xfc>
   519ec:	e5932000 	ldr	r2, [r3]
   519f0:	e3520000 	cmp	r2, #0
   519f4:	0a000005 	beq	51a10 <_free_r+0x44>
   519f8:	e1520001 	cmp	r2, r1
   519fc:	9a000008 	bls	51a24 <_free_r+0x58>
   51a00:	e5910000 	ldr	r0, [r1]
   51a04:	e081c000 	add	ip, r1, r0
   51a08:	e152000c 	cmp	r2, ip
   51a0c:	0a000028 	beq	51ab4 <_free_r+0xe8>
   51a10:	e5812004 	str	r2, [r1, #4]
   51a14:	e5831000 	str	r1, [r3]
   51a18:	e49d4004 	pop	{r4}		; (ldr r4, [sp], #4)
   51a1c:	e12fff1e 	bx	lr
   51a20:	e1a02003 	mov	r2, r3
   51a24:	e5923004 	ldr	r3, [r2, #4]
   51a28:	e1530001 	cmp	r3, r1
   51a2c:	83a0c000 	movhi	ip, #0
   51a30:	93a0c001 	movls	ip, #1
   51a34:	e3530000 	cmp	r3, #0
   51a38:	03a0c000 	moveq	ip, #0
   51a3c:	e35c0000 	cmp	ip, #0
   51a40:	1afffff6 	bne	51a20 <_free_r+0x54>
   51a44:	e592c000 	ldr	ip, [r2]
   51a48:	e082400c 	add	r4, r2, ip
   51a4c:	e1540001 	cmp	r4, r1
   51a50:	0a00000d 	beq	51a8c <_free_r+0xc0>
   51a54:	83a0300c 	movhi	r3, #12
   51a58:	85803000 	strhi	r3, [r0]
   51a5c:	8affffed 	bhi	51a18 <_free_r+0x4c>
   51a60:	e5910000 	ldr	r0, [r1]
   51a64:	e081c000 	add	ip, r1, r0
   51a68:	e153000c 	cmp	r3, ip
   51a6c:	0593c000 	ldreq	ip, [r3]
   51a70:	05933004 	ldreq	r3, [r3, #4]
   51a74:	0080000c 	addeq	r0, r0, ip
   51a78:	08810009 	stmeq	r1, {r0, r3}
   51a7c:	15813004 	strne	r3, [r1, #4]
   51a80:	e49d4004 	pop	{r4}		; (ldr r4, [sp], #4)
   51a84:	e5821004 	str	r1, [r2, #4]
   51a88:	e12fff1e 	bx	lr
   51a8c:	e5910000 	ldr	r0, [r1]
   51a90:	e1a01002 	mov	r1, r2
   51a94:	e08cc000 	add	ip, ip, r0
   51a98:	e681c00c 	str	ip, [r1], ip
   51a9c:	e1530001 	cmp	r3, r1
   51aa0:	0893000a 	ldmeq	r3, {r1, r3}
   51aa4:	008cc001 	addeq	ip, ip, r1
   51aa8:	0582c000 	streq	ip, [r2]
   51aac:	05823004 	streq	r3, [r2, #4]
   51ab0:	eaffffd8 	b	51a18 <_free_r+0x4c>
   51ab4:	e592c000 	ldr	ip, [r2]
   51ab8:	e5922004 	ldr	r2, [r2, #4]
   51abc:	e080000c 	add	r0, r0, ip
   51ac0:	e8810005 	stm	r1, {r0, r2}
   51ac4:	eaffffd2 	b	51a14 <_free_r+0x48>
   51ac8:	200054dc 	.word	0x200054dc

00051acc <_malloc_r>:
   51acc:	e92d4070 	push	{r4, r5, r6, lr}
   51ad0:	e2815003 	add	r5, r1, #3
   51ad4:	e3c55003 	bic	r5, r5, #3
   51ad8:	e2855008 	add	r5, r5, #8
   51adc:	e355000c 	cmp	r5, #12
   51ae0:	33a0500c 	movcc	r5, #12
   51ae4:	e1550001 	cmp	r5, r1
   51ae8:	23a01000 	movcs	r1, #0
   51aec:	33a01001 	movcc	r1, #1
   51af0:	e1911fa5 	orrs	r1, r1, r5, lsr #31
   51af4:	e1a06000 	mov	r6, r0
   51af8:	1a000033 	bne	51bcc <_malloc_r+0x100>
   51afc:	e59f1110 	ldr	r1, [pc, #272]	; 51c14 <_malloc_r+0x148>
   51b00:	e5912000 	ldr	r2, [r1]
   51b04:	e3520000 	cmp	r2, #0
   51b08:	0a00000a 	beq	51b38 <_malloc_r+0x6c>
   51b0c:	e5923000 	ldr	r3, [r2]
   51b10:	e0533005 	subs	r3, r3, r5
   51b14:	4a000004 	bmi	51b2c <_malloc_r+0x60>
   51b18:	ea000038 	b	51c00 <_malloc_r+0x134>
   51b1c:	e5943000 	ldr	r3, [r4]
   51b20:	e0533005 	subs	r3, r3, r5
   51b24:	5a000017 	bpl	51b88 <_malloc_r+0xbc>
   51b28:	e1a02004 	mov	r2, r4
   51b2c:	e5924004 	ldr	r4, [r2, #4]
   51b30:	e3540000 	cmp	r4, #0
   51b34:	1afffff8 	bne	51b1c <_malloc_r+0x50>
   51b38:	e5911004 	ldr	r1, [r1, #4]
   51b3c:	e3510000 	cmp	r1, #0
   51b40:	e59f40cc 	ldr	r4, [pc, #204]	; 51c14 <_malloc_r+0x148>
   51b44:	0a000029 	beq	51bf0 <_malloc_r+0x124>
   51b48:	e1a00006 	mov	r0, r6
   51b4c:	e1a01005 	mov	r1, r5
   51b50:	eb00005c 	bl	51cc8 <_sbrk_r>
   51b54:	e3700001 	cmn	r0, #1
   51b58:	0a00001b 	beq	51bcc <_malloc_r+0x100>
   51b5c:	e2804003 	add	r4, r0, #3
   51b60:	e3c44003 	bic	r4, r4, #3
   51b64:	e1500004 	cmp	r0, r4
   51b68:	0a000004 	beq	51b80 <_malloc_r+0xb4>
   51b6c:	e0601004 	rsb	r1, r0, r4
   51b70:	e1a00006 	mov	r0, r6
   51b74:	eb000053 	bl	51cc8 <_sbrk_r>
   51b78:	e3700001 	cmn	r0, #1
   51b7c:	0a000012 	beq	51bcc <_malloc_r+0x100>
   51b80:	e5845000 	str	r5, [r4]
   51b84:	ea000003 	b	51b98 <_malloc_r+0xcc>
   51b88:	e353000b 	cmp	r3, #11
   51b8c:	9a000009 	bls	51bb8 <_malloc_r+0xec>
   51b90:	e5843000 	str	r3, [r4]
   51b94:	e7a45003 	str	r5, [r4, r3]!
   51b98:	e284000b 	add	r0, r4, #11
   51b9c:	e3c00007 	bic	r0, r0, #7
   51ba0:	e2843004 	add	r3, r4, #4
   51ba4:	e0503003 	subs	r3, r0, r3
   51ba8:	12632000 	rsbne	r2, r3, #0
   51bac:	17842003 	strne	r2, [r4, r3]
   51bb0:	e8bd4070 	pop	{r4, r5, r6, lr}
   51bb4:	e12fff1e 	bx	lr
   51bb8:	e1540002 	cmp	r4, r2
   51bbc:	0a000007 	beq	51be0 <_malloc_r+0x114>
   51bc0:	e5943004 	ldr	r3, [r4, #4]
   51bc4:	e5823004 	str	r3, [r2, #4]
   51bc8:	eafffff2 	b	51b98 <_malloc_r+0xcc>
   51bcc:	e3a0300c 	mov	r3, #12
   51bd0:	e5863000 	str	r3, [r6]
   51bd4:	e3a00000 	mov	r0, #0
   51bd8:	e8bd4070 	pop	{r4, r5, r6, lr}
   51bdc:	e12fff1e 	bx	lr
   51be0:	e1a03002 	mov	r3, r2
   51be4:	e5813000 	str	r3, [r1]
   51be8:	e1a04002 	mov	r4, r2
   51bec:	eaffffe9 	b	51b98 <_malloc_r+0xcc>
   51bf0:	e1a00006 	mov	r0, r6
   51bf4:	eb000033 	bl	51cc8 <_sbrk_r>
   51bf8:	e5840004 	str	r0, [r4, #4]
   51bfc:	eaffffd1 	b	51b48 <_malloc_r+0x7c>
   51c00:	e353000b 	cmp	r3, #11
   51c04:	95923004 	ldrls	r3, [r2, #4]
   51c08:	9afffff5 	bls	51be4 <_malloc_r+0x118>
   51c0c:	e1a04002 	mov	r4, r2
   51c10:	eaffffde 	b	51b90 <_malloc_r+0xc4>
   51c14:	200054dc 	.word	0x200054dc

00051c18 <_iprintf_r>:
   51c18:	e92d000e 	push	{r1, r2, r3}
   51c1c:	e92d4030 	push	{r4, r5, lr}
   51c20:	e2504000 	subs	r4, r0, #0
   51c24:	e24dd008 	sub	sp, sp, #8
   51c28:	e59d5014 	ldr	r5, [sp, #20]
   51c2c:	0a000002 	beq	51c3c <_iprintf_r+0x24>
   51c30:	e5943018 	ldr	r3, [r4, #24]
   51c34:	e3530000 	cmp	r3, #0
   51c38:	0bfffddf 	bleq	513bc <__sinit>
   51c3c:	e28dc018 	add	ip, sp, #24
   51c40:	e1a00004 	mov	r0, r4
   51c44:	e1a02005 	mov	r2, r5
   51c48:	e5941008 	ldr	r1, [r4, #8]
   51c4c:	e1a0300c 	mov	r3, ip
   51c50:	e58dc004 	str	ip, [sp, #4]
   51c54:	eb0000cf 	bl	51f98 <_vfiprintf_r>
   51c58:	e28dd008 	add	sp, sp, #8
   51c5c:	e8bd4030 	pop	{r4, r5, lr}
   51c60:	e28dd00c 	add	sp, sp, #12
   51c64:	e12fff1e 	bx	lr

00051c68 <iprintf>:
   51c68:	e92d000f 	push	{r0, r1, r2, r3}
   51c6c:	e92d4030 	push	{r4, r5, lr}
   51c70:	e59f304c 	ldr	r3, [pc, #76]	; 51cc4 <iprintf+0x5c>
   51c74:	e5934000 	ldr	r4, [r3]
   51c78:	e24dd00c 	sub	sp, sp, #12
   51c7c:	e3540000 	cmp	r4, #0
   51c80:	e59d5018 	ldr	r5, [sp, #24]
   51c84:	0a000003 	beq	51c98 <iprintf+0x30>
   51c88:	e5943018 	ldr	r3, [r4, #24]
   51c8c:	e3530000 	cmp	r3, #0
   51c90:	01a00004 	moveq	r0, r4
   51c94:	0bfffdc8 	bleq	513bc <__sinit>
   51c98:	e28dc01c 	add	ip, sp, #28
   51c9c:	e1a00004 	mov	r0, r4
   51ca0:	e1a02005 	mov	r2, r5
   51ca4:	e5941008 	ldr	r1, [r4, #8]
   51ca8:	e1a0300c 	mov	r3, ip
   51cac:	e58dc004 	str	ip, [sp, #4]
   51cb0:	eb0000b8 	bl	51f98 <_vfiprintf_r>
   51cb4:	e28dd00c 	add	sp, sp, #12
   51cb8:	e8bd4030 	pop	{r4, r5, lr}
   51cbc:	e28dd010 	add	sp, sp, #16
   51cc0:	e12fff1e 	bx	lr
   51cc4:	20005060 	.word	0x20005060

00051cc8 <_sbrk_r>:
   51cc8:	e92d4038 	push	{r3, r4, r5, lr}
   51ccc:	e59f4034 	ldr	r4, [pc, #52]	; 51d08 <_sbrk_r+0x40>
   51cd0:	e3a03000 	mov	r3, #0
   51cd4:	e1a05000 	mov	r5, r0
   51cd8:	e1a00001 	mov	r0, r1
   51cdc:	e5843000 	str	r3, [r4]
   51ce0:	fafff905 	blx	500fc <_sbrk>
   51ce4:	e3700001 	cmn	r0, #1
   51ce8:	0a000001 	beq	51cf4 <_sbrk_r+0x2c>
   51cec:	e8bd4038 	pop	{r3, r4, r5, lr}
   51cf0:	e12fff1e 	bx	lr
   51cf4:	e5943000 	ldr	r3, [r4]
   51cf8:	e3530000 	cmp	r3, #0
   51cfc:	15853000 	strne	r3, [r5]
   51d00:	e8bd4038 	pop	{r3, r4, r5, lr}
   51d04:	e12fff1e 	bx	lr
   51d08:	200054e4 	.word	0x200054e4

00051d0c <__sread>:
   51d0c:	e92d4010 	push	{r4, lr}
   51d10:	e1a04001 	mov	r4, r1
   51d14:	e1d110fe 	ldrsh	r1, [r1, #14]
   51d18:	eb0001a9 	bl	523c4 <_read_r>
   51d1c:	e3500000 	cmp	r0, #0
   51d20:	a5943054 	ldrge	r3, [r4, #84]	; 0x54
   51d24:	b1d430bc 	ldrhlt	r3, [r4, #12]
   51d28:	a0833000 	addge	r3, r3, r0
   51d2c:	b3c33a01 	biclt	r3, r3, #4096	; 0x1000
   51d30:	a5843054 	strge	r3, [r4, #84]	; 0x54
   51d34:	b1c430bc 	strhlt	r3, [r4, #12]
   51d38:	e8bd4010 	pop	{r4, lr}
   51d3c:	e12fff1e 	bx	lr

00051d40 <__seofread>:
   51d40:	e3a00000 	mov	r0, #0
   51d44:	e12fff1e 	bx	lr

00051d48 <__swrite>:
   51d48:	e92d40f8 	push	{r3, r4, r5, r6, r7, lr}
   51d4c:	e1a04001 	mov	r4, r1
   51d50:	e1d110bc 	ldrh	r1, [r1, #12]
   51d54:	e3110c01 	tst	r1, #256	; 0x100
   51d58:	e1a06002 	mov	r6, r2
   51d5c:	e1a05003 	mov	r5, r3
   51d60:	e1a07000 	mov	r7, r0
   51d64:	0a000004 	beq	51d7c <__swrite+0x34>
   51d68:	e1d410fe 	ldrsh	r1, [r4, #14]
   51d6c:	e3a02000 	mov	r2, #0
   51d70:	e3a03002 	mov	r3, #2
   51d74:	eb00003a 	bl	51e64 <_lseek_r>
   51d78:	e1d410bc 	ldrh	r1, [r4, #12]
   51d7c:	e3c11a01 	bic	r1, r1, #4096	; 0x1000
   51d80:	e1c410bc 	strh	r1, [r4, #12]
   51d84:	e1a00007 	mov	r0, r7
   51d88:	e1d410fe 	ldrsh	r1, [r4, #14]
   51d8c:	e1a02006 	mov	r2, r6
   51d90:	e1a03005 	mov	r3, r5
   51d94:	eb000012 	bl	51de4 <_write_r>
   51d98:	e8bd40f8 	pop	{r3, r4, r5, r6, r7, lr}
   51d9c:	e12fff1e 	bx	lr

00051da0 <__sseek>:
   51da0:	e92d4010 	push	{r4, lr}
   51da4:	e1a04001 	mov	r4, r1
   51da8:	e1d110fe 	ldrsh	r1, [r1, #14]
   51dac:	eb00002c 	bl	51e64 <_lseek_r>
   51db0:	e1d430bc 	ldrh	r3, [r4, #12]
   51db4:	e3700001 	cmn	r0, #1
   51db8:	03c33a01 	biceq	r3, r3, #4096	; 0x1000
   51dbc:	13833a01 	orrne	r3, r3, #4096	; 0x1000
   51dc0:	15840054 	strne	r0, [r4, #84]	; 0x54
   51dc4:	e1c430bc 	strh	r3, [r4, #12]
   51dc8:	e8bd4010 	pop	{r4, lr}
   51dcc:	e12fff1e 	bx	lr

00051dd0 <__sclose>:
   51dd0:	e92d4008 	push	{r3, lr}
   51dd4:	e1d110fe 	ldrsh	r1, [r1, #14]
   51dd8:	eb000012 	bl	51e28 <_close_r>
   51ddc:	e8bd4008 	pop	{r3, lr}
   51de0:	e12fff1e 	bx	lr

00051de4 <_write_r>:
   51de4:	e92d4038 	push	{r3, r4, r5, lr}
   51de8:	e59f4034 	ldr	r4, [pc, #52]	; 51e24 <_write_r+0x40>
   51dec:	e3a0c000 	mov	ip, #0
   51df0:	e1a05000 	mov	r5, r0
   51df4:	e1a00001 	mov	r0, r1
   51df8:	e1a01002 	mov	r1, r2
   51dfc:	e1a02003 	mov	r2, r3
   51e00:	e584c000 	str	ip, [r4]
   51e04:	fafff8d2 	blx	50154 <_write>
   51e08:	e3700001 	cmn	r0, #1
   51e0c:	1a000002 	bne	51e1c <_write_r+0x38>
   51e10:	e5943000 	ldr	r3, [r4]
   51e14:	e3530000 	cmp	r3, #0
   51e18:	15853000 	strne	r3, [r5]
   51e1c:	e8bd4038 	pop	{r3, r4, r5, lr}
   51e20:	e12fff1e 	bx	lr
   51e24:	200054e4 	.word	0x200054e4

00051e28 <_close_r>:
   51e28:	e92d4038 	push	{r3, r4, r5, lr}
   51e2c:	e59f402c 	ldr	r4, [pc, #44]	; 51e60 <_close_r+0x38>
   51e30:	e3a03000 	mov	r3, #0
   51e34:	e1a05000 	mov	r5, r0
   51e38:	e1a00001 	mov	r0, r1
   51e3c:	e5843000 	str	r3, [r4]
   51e40:	fafff8cc 	blx	50178 <_close>
   51e44:	e3700001 	cmn	r0, #1
   51e48:	1a000002 	bne	51e58 <_close_r+0x30>
   51e4c:	e5943000 	ldr	r3, [r4]
   51e50:	e3530000 	cmp	r3, #0
   51e54:	15853000 	strne	r3, [r5]
   51e58:	e8bd4038 	pop	{r3, r4, r5, lr}
   51e5c:	e12fff1e 	bx	lr
   51e60:	200054e4 	.word	0x200054e4

00051e64 <_lseek_r>:
   51e64:	e92d4038 	push	{r3, r4, r5, lr}
   51e68:	e59f4034 	ldr	r4, [pc, #52]	; 51ea4 <_lseek_r+0x40>
   51e6c:	e3a0c000 	mov	ip, #0
   51e70:	e1a05000 	mov	r5, r0
   51e74:	e1a00001 	mov	r0, r1
   51e78:	e1a01002 	mov	r1, r2
   51e7c:	e1a02003 	mov	r2, r3
   51e80:	e584c000 	str	ip, [r4]
   51e84:	fafff8c8 	blx	501ac <_lseek>
   51e88:	e3700001 	cmn	r0, #1
   51e8c:	1a000002 	bne	51e9c <_lseek_r+0x38>
   51e90:	e5943000 	ldr	r3, [r4]
   51e94:	e3530000 	cmp	r3, #0
   51e98:	15853000 	strne	r3, [r5]
   51e9c:	e8bd4038 	pop	{r3, r4, r5, lr}
   51ea0:	e12fff1e 	bx	lr
   51ea4:	200054e4 	.word	0x200054e4

00051ea8 <__sfputc_r>:
   51ea8:	e5923008 	ldr	r3, [r2, #8]
   51eac:	e2433001 	sub	r3, r3, #1
   51eb0:	e3530000 	cmp	r3, #0
   51eb4:	e92d4010 	push	{r4, lr}
   51eb8:	e5823008 	str	r3, [r2, #8]
   51ebc:	a201c0ff 	andge	ip, r1, #255	; 0xff
   51ec0:	ba000006 	blt	51ee0 <__sfputc_r+0x38>
   51ec4:	e5923000 	ldr	r3, [r2]
   51ec8:	e2834001 	add	r4, r3, #1
   51ecc:	e5824000 	str	r4, [r2]
   51ed0:	e5c31000 	strb	r1, [r3]
   51ed4:	e1a0000c 	mov	r0, ip
   51ed8:	e8bd4010 	pop	{r4, lr}
   51edc:	e12fff1e 	bx	lr
   51ee0:	e592c018 	ldr	ip, [r2, #24]
   51ee4:	e153000c 	cmp	r3, ip
   51ee8:	ba000002 	blt	51ef8 <__sfputc_r+0x50>
   51eec:	e201c0ff 	and	ip, r1, #255	; 0xff
   51ef0:	e35c000a 	cmp	ip, #10
   51ef4:	1afffff2 	bne	51ec4 <__sfputc_r+0x1c>
   51ef8:	eb0001a3 	bl	5258c <__swbuf_r>
   51efc:	e8bd4010 	pop	{r4, lr}
   51f00:	e12fff1e 	bx	lr

00051f04 <__sfputs_r>:
   51f04:	e92d41f0 	push	{r4, r5, r6, r7, r8, lr}
   51f08:	e2538000 	subs	r8, r3, #0
   51f0c:	13a0c000 	movne	ip, #0
   51f10:	e1a05000 	mov	r5, r0
   51f14:	e1a06001 	mov	r6, r1
   51f18:	e1a07002 	mov	r7, r2
   51f1c:	11a0400c 	movne	r4, ip
   51f20:	1a000003 	bne	51f34 <__sfputs_r+0x30>
   51f24:	ea00000b 	b	51f58 <__sfputs_r+0x54>
   51f28:	e1540008 	cmp	r4, r8
   51f2c:	e1a0c004 	mov	ip, r4
   51f30:	0a000008 	beq	51f58 <__sfputs_r+0x54>
   51f34:	e7d7100c 	ldrb	r1, [r7, ip]
   51f38:	e1a00005 	mov	r0, r5
   51f3c:	e1a02006 	mov	r2, r6
   51f40:	ebffffd8 	bl	51ea8 <__sfputc_r>
   51f44:	e3700001 	cmn	r0, #1
   51f48:	e2844001 	add	r4, r4, #1
   51f4c:	1afffff5 	bne	51f28 <__sfputs_r+0x24>
   51f50:	e8bd41f0 	pop	{r4, r5, r6, r7, r8, lr}
   51f54:	e12fff1e 	bx	lr
   51f58:	e3a00000 	mov	r0, #0
   51f5c:	e8bd41f0 	pop	{r4, r5, r6, r7, r8, lr}
   51f60:	e12fff1e 	bx	lr

00051f64 <__sprint_r>:
   51f64:	e5923008 	ldr	r3, [r2, #8]
   51f68:	e3530000 	cmp	r3, #0
   51f6c:	e92d4010 	push	{r4, lr}
   51f70:	05823004 	streq	r3, [r2, #4]
   51f74:	e1a04002 	mov	r4, r2
   51f78:	01a00003 	moveq	r0, r3
   51f7c:	0a000003 	beq	51f90 <__sprint_r+0x2c>
   51f80:	eb00023a 	bl	52870 <__sfvwrite_r>
   51f84:	e3a03000 	mov	r3, #0
   51f88:	e5843008 	str	r3, [r4, #8]
   51f8c:	e5843004 	str	r3, [r4, #4]
   51f90:	e8bd4010 	pop	{r4, lr}
   51f94:	e12fff1e 	bx	lr

00051f98 <_vfiprintf_r>:
   51f98:	e92d4ff0 	push	{r4, r5, r6, r7, r8, r9, sl, fp, lr}
   51f9c:	e250c000 	subs	ip, r0, #0
   51fa0:	e24dd07c 	sub	sp, sp, #124	; 0x7c
   51fa4:	e58dc010 	str	ip, [sp, #16]
   51fa8:	e1a0b001 	mov	fp, r1
   51fac:	e1a06002 	mov	r6, r2
   51fb0:	e58d3014 	str	r3, [sp, #20]
   51fb4:	0a000002 	beq	51fc4 <_vfiprintf_r+0x2c>
   51fb8:	e59c3018 	ldr	r3, [ip, #24]
   51fbc:	e3530000 	cmp	r3, #0
   51fc0:	0a0000da 	beq	52330 <_vfiprintf_r+0x398>
   51fc4:	e59f33b0 	ldr	r3, [pc, #944]	; 5237c <_vfiprintf_r+0x3e4>
   51fc8:	e15b0003 	cmp	fp, r3
   51fcc:	0a0000db 	beq	52340 <_vfiprintf_r+0x3a8>
   51fd0:	e59f33a8 	ldr	r3, [pc, #936]	; 52380 <_vfiprintf_r+0x3e8>
   51fd4:	e15b0003 	cmp	fp, r3
   51fd8:	0a0000db 	beq	5234c <_vfiprintf_r+0x3b4>
   51fdc:	e59f33a0 	ldr	r3, [pc, #928]	; 52384 <_vfiprintf_r+0x3ec>
   51fe0:	e15b0003 	cmp	fp, r3
   51fe4:	059dc010 	ldreq	ip, [sp, #16]
   51fe8:	059cb00c 	ldreq	fp, [ip, #12]
   51fec:	e1db30bc 	ldrh	r3, [fp, #12]
   51ff0:	e3130008 	tst	r3, #8
   51ff4:	0a0000c5 	beq	52310 <_vfiprintf_r+0x378>
   51ff8:	e59b3010 	ldr	r3, [fp, #16]
   51ffc:	e3530000 	cmp	r3, #0
   52000:	0a0000c2 	beq	52310 <_vfiprintf_r+0x378>
   52004:	e3a03030 	mov	r3, #48	; 0x30
   52008:	e5cd3032 	strb	r3, [sp, #50]	; 0x32
   5200c:	e5d63000 	ldrb	r3, [r6]
   52010:	e3a07000 	mov	r7, #0
   52014:	e3a02020 	mov	r2, #32
   52018:	e3530000 	cmp	r3, #0
   5201c:	13530025 	cmpne	r3, #37	; 0x25
   52020:	e58d702c 	str	r7, [sp, #44]	; 0x2c
   52024:	e5cd2031 	strb	r2, [sp, #49]	; 0x31
   52028:	e59f5358 	ldr	r5, [pc, #856]	; 52388 <_vfiprintf_r+0x3f0>
   5202c:	e59fa358 	ldr	sl, [pc, #856]	; 5238c <_vfiprintf_r+0x3f4>
   52030:	e59f9358 	ldr	r9, [pc, #856]	; 52390 <_vfiprintf_r+0x3f8>
   52034:	0a00005e 	beq	521b4 <_vfiprintf_r+0x21c>
   52038:	e2863001 	add	r3, r6, #1
   5203c:	e1a04003 	mov	r4, r3
   52040:	e5d33000 	ldrb	r3, [r3]
   52044:	e3530025 	cmp	r3, #37	; 0x25
   52048:	13530000 	cmpne	r3, #0
   5204c:	e2843001 	add	r3, r4, #1
   52050:	1afffff9 	bne	5203c <_vfiprintf_r+0xa4>
   52054:	e054c006 	subs	ip, r4, r6
   52058:	1a000060 	bne	521e0 <_vfiprintf_r+0x248>
   5205c:	e5d43000 	ldrb	r3, [r4]
   52060:	e3530000 	cmp	r3, #0
   52064:	0a000056 	beq	521c4 <_vfiprintf_r+0x22c>
   52068:	e3e02000 	mvn	r2, #0
   5206c:	e2843001 	add	r3, r4, #1
   52070:	e58d7018 	str	r7, [sp, #24]
   52074:	e58d7024 	str	r7, [sp, #36]	; 0x24
   52078:	e58d7020 	str	r7, [sp, #32]
   5207c:	e5cd705b 	strb	r7, [sp, #91]	; 0x5b
   52080:	e58d7070 	str	r7, [sp, #112]	; 0x70
   52084:	e58d201c 	str	r2, [sp, #28]
   52088:	e3a04001 	mov	r4, #1
   5208c:	ea000002 	b	5209c <_vfiprintf_r+0x104>
   52090:	e59d2018 	ldr	r2, [sp, #24]
   52094:	e1820014 	orr	r0, r2, r4, lsl r0
   52098:	e58d0018 	str	r0, [sp, #24]
   5209c:	e5d31000 	ldrb	r1, [r3]
   520a0:	e59f02e0 	ldr	r0, [pc, #736]	; 52388 <_vfiprintf_r+0x3f0>
   520a4:	e3a02005 	mov	r2, #5
   520a8:	e1a06003 	mov	r6, r3
   520ac:	eb000383 	bl	52ec0 <memchr>
   520b0:	e3500000 	cmp	r0, #0
   520b4:	e0650000 	rsb	r0, r5, r0
   520b8:	e2863001 	add	r3, r6, #1
   520bc:	1afffff3 	bne	52090 <_vfiprintf_r+0xf8>
   520c0:	e59d3018 	ldr	r3, [sp, #24]
   520c4:	e3130010 	tst	r3, #16
   520c8:	13a01020 	movne	r1, #32
   520cc:	15cd105b 	strbne	r1, [sp, #91]	; 0x5b
   520d0:	e3130008 	tst	r3, #8
   520d4:	13a0102b 	movne	r1, #43	; 0x2b
   520d8:	15cd105b 	strbne	r1, [sp, #91]	; 0x5b
   520dc:	e5d61000 	ldrb	r1, [r6]
   520e0:	e351002a 	cmp	r1, #42	; 0x2a
   520e4:	e1a02006 	mov	r2, r6
   520e8:	0a00005d 	beq	52264 <_vfiprintf_r+0x2cc>
   520ec:	e2413030 	sub	r3, r1, #48	; 0x30
   520f0:	e3530009 	cmp	r3, #9
   520f4:	959d2024 	ldrls	r2, [sp, #36]	; 0x24
   520f8:	92860001 	addls	r0, r6, #1
   520fc:	8a000008 	bhi	52124 <_vfiprintf_r+0x18c>
   52100:	e5d01000 	ldrb	r1, [r0]
   52104:	e0822102 	add	r2, r2, r2, lsl #2
   52108:	e0832082 	add	r2, r3, r2, lsl #1
   5210c:	e2413030 	sub	r3, r1, #48	; 0x30
   52110:	e3530009 	cmp	r3, #9
   52114:	e1a06000 	mov	r6, r0
   52118:	e2800001 	add	r0, r0, #1
   5211c:	9afffff7 	bls	52100 <_vfiprintf_r+0x168>
   52120:	e58d2024 	str	r2, [sp, #36]	; 0x24
   52124:	e351002e 	cmp	r1, #46	; 0x2e
   52128:	0a000039 	beq	52214 <_vfiprintf_r+0x27c>
   5212c:	e59f0258 	ldr	r0, [pc, #600]	; 5238c <_vfiprintf_r+0x3f4>
   52130:	e3a02003 	mov	r2, #3
   52134:	eb000361 	bl	52ec0 <memchr>
   52138:	e3500000 	cmp	r0, #0
   5213c:	0a000005 	beq	52158 <_vfiprintf_r+0x1c0>
   52140:	e59d3018 	ldr	r3, [sp, #24]
   52144:	e06a0000 	rsb	r0, sl, r0
   52148:	e3a02040 	mov	r2, #64	; 0x40
   5214c:	e1830012 	orr	r0, r3, r2, lsl r0
   52150:	e58d0018 	str	r0, [sp, #24]
   52154:	e2866001 	add	r6, r6, #1
   52158:	e5d63000 	ldrb	r3, [r6]
   5215c:	e59f0230 	ldr	r0, [pc, #560]	; 52394 <_vfiprintf_r+0x3fc>
   52160:	e1a01003 	mov	r1, r3
   52164:	e3a02006 	mov	r2, #6
   52168:	e5cd3030 	strb	r3, [sp, #48]	; 0x30
   5216c:	eb000353 	bl	52ec0 <memchr>
   52170:	e3500000 	cmp	r0, #0
   52174:	e2866001 	add	r6, r6, #1
   52178:	0a000053 	beq	522cc <_vfiprintf_r+0x334>
   5217c:	e3590000 	cmp	r9, #0
   52180:	1a000074 	bne	52358 <_vfiprintf_r+0x3c0>
   52184:	e59d3014 	ldr	r3, [sp, #20]
   52188:	e2833007 	add	r3, r3, #7
   5218c:	e3c33007 	bic	r3, r3, #7
   52190:	e2833008 	add	r3, r3, #8
   52194:	e58d3014 	str	r3, [sp, #20]
   52198:	e59d302c 	ldr	r3, [sp, #44]	; 0x2c
   5219c:	e0833008 	add	r3, r3, r8
   521a0:	e58d302c 	str	r3, [sp, #44]	; 0x2c
   521a4:	e5d63000 	ldrb	r3, [r6]
   521a8:	e3530000 	cmp	r3, #0
   521ac:	13530025 	cmpne	r3, #37	; 0x25
   521b0:	1affffa0 	bne	52038 <_vfiprintf_r+0xa0>
   521b4:	e1a04006 	mov	r4, r6
   521b8:	e5d43000 	ldrb	r3, [r4]
   521bc:	e3530000 	cmp	r3, #0
   521c0:	1affffa8 	bne	52068 <_vfiprintf_r+0xd0>
   521c4:	e1db30bc 	ldrh	r3, [fp, #12]
   521c8:	e3130040 	tst	r3, #64	; 0x40
   521cc:	1a00004b 	bne	52300 <_vfiprintf_r+0x368>
   521d0:	e59d002c 	ldr	r0, [sp, #44]	; 0x2c
   521d4:	e28dd07c 	add	sp, sp, #124	; 0x7c
   521d8:	e8bd4ff0 	pop	{r4, r5, r6, r7, r8, r9, sl, fp, lr}
   521dc:	e12fff1e 	bx	lr
   521e0:	e1a0300c 	mov	r3, ip
   521e4:	e1a02006 	mov	r2, r6
   521e8:	e59d0010 	ldr	r0, [sp, #16]
   521ec:	e1a0100b 	mov	r1, fp
   521f0:	e58dc00c 	str	ip, [sp, #12]
   521f4:	ebffff42 	bl	51f04 <__sfputs_r>
   521f8:	e3700001 	cmn	r0, #1
   521fc:	e59dc00c 	ldr	ip, [sp, #12]
   52200:	0affffef 	beq	521c4 <_vfiprintf_r+0x22c>
   52204:	e59d302c 	ldr	r3, [sp, #44]	; 0x2c
   52208:	e083c00c 	add	ip, r3, ip
   5220c:	e58dc02c 	str	ip, [sp, #44]	; 0x2c
   52210:	eaffff91 	b	5205c <_vfiprintf_r+0xc4>
   52214:	e5d61001 	ldrb	r1, [r6, #1]
   52218:	e351002a 	cmp	r1, #42	; 0x2a
   5221c:	0a00001d 	beq	52298 <_vfiprintf_r+0x300>
   52220:	e2413030 	sub	r3, r1, #48	; 0x30
   52224:	e3530009 	cmp	r3, #9
   52228:	e58d701c 	str	r7, [sp, #28]
   5222c:	e2862001 	add	r2, r6, #1
   52230:	8a00003c 	bhi	52328 <_vfiprintf_r+0x390>
   52234:	e2860002 	add	r0, r6, #2
   52238:	e3a02000 	mov	r2, #0
   5223c:	e5d01000 	ldrb	r1, [r0]
   52240:	e0822102 	add	r2, r2, r2, lsl #2
   52244:	e0832082 	add	r2, r3, r2, lsl #1
   52248:	e2413030 	sub	r3, r1, #48	; 0x30
   5224c:	e3530009 	cmp	r3, #9
   52250:	e1a06000 	mov	r6, r0
   52254:	e2800001 	add	r0, r0, #1
   52258:	9afffff7 	bls	5223c <_vfiprintf_r+0x2a4>
   5225c:	e58d201c 	str	r2, [sp, #28]
   52260:	eaffffb1 	b	5212c <_vfiprintf_r+0x194>
   52264:	e59d1014 	ldr	r1, [sp, #20]
   52268:	e5910000 	ldr	r0, [r1]
   5226c:	e3500000 	cmp	r0, #0
   52270:	e2811004 	add	r1, r1, #4
   52274:	b2600000 	rsblt	r0, r0, #0
   52278:	b3833002 	orrlt	r3, r3, #2
   5227c:	e58d1014 	str	r1, [sp, #20]
   52280:	a58d0024 	strge	r0, [sp, #36]	; 0x24
   52284:	b58d0024 	strlt	r0, [sp, #36]	; 0x24
   52288:	b58d3018 	strlt	r3, [sp, #24]
   5228c:	e2866001 	add	r6, r6, #1
   52290:	e5d21001 	ldrb	r1, [r2, #1]
   52294:	eaffffa2 	b	52124 <_vfiprintf_r+0x18c>
   52298:	e59d2014 	ldr	r2, [sp, #20]
   5229c:	e5923000 	ldr	r3, [r2]
   522a0:	e2822004 	add	r2, r2, #4
   522a4:	e3530000 	cmp	r3, #0
   522a8:	e58d301c 	str	r3, [sp, #28]
   522ac:	e58d2014 	str	r2, [sp, #20]
   522b0:	e2863002 	add	r3, r6, #2
   522b4:	b3e02000 	mvnlt	r2, #0
   522b8:	a5d61002 	ldrbge	r1, [r6, #2]
   522bc:	b5d61002 	ldrblt	r1, [r6, #2]
   522c0:	b58d201c 	strlt	r2, [sp, #28]
   522c4:	e1a06003 	mov	r6, r3
   522c8:	eaffff97 	b	5212c <_vfiprintf_r+0x194>
   522cc:	e28d3014 	add	r3, sp, #20
   522d0:	e58d3000 	str	r3, [sp]
   522d4:	e59d0010 	ldr	r0, [sp, #16]
   522d8:	e28d1018 	add	r1, sp, #24
   522dc:	e1a0200b 	mov	r2, fp
   522e0:	e59f30b0 	ldr	r3, [pc, #176]	; 52398 <_vfiprintf_r+0x400>
   522e4:	eb000410 	bl	5332c <_printf_i>
   522e8:	e1a08000 	mov	r8, r0
   522ec:	e3780001 	cmn	r8, #1
   522f0:	1affffa8 	bne	52198 <_vfiprintf_r+0x200>
   522f4:	e1db30bc 	ldrh	r3, [fp, #12]
   522f8:	e3130040 	tst	r3, #64	; 0x40
   522fc:	0affffb3 	beq	521d0 <_vfiprintf_r+0x238>
   52300:	e3e00000 	mvn	r0, #0
   52304:	e28dd07c 	add	sp, sp, #124	; 0x7c
   52308:	e8bd4ff0 	pop	{r4, r5, r6, r7, r8, r9, sl, fp, lr}
   5230c:	e12fff1e 	bx	lr
   52310:	e59d0010 	ldr	r0, [sp, #16]
   52314:	e1a0100b 	mov	r1, fp
   52318:	eb0000ef 	bl	526dc <__swsetup_r>
   5231c:	e3500000 	cmp	r0, #0
   52320:	0affff37 	beq	52004 <_vfiprintf_r+0x6c>
   52324:	eafffff5 	b	52300 <_vfiprintf_r+0x368>
   52328:	e1a06002 	mov	r6, r2
   5232c:	eaffff7e 	b	5212c <_vfiprintf_r+0x194>
   52330:	ebfffc21 	bl	513bc <__sinit>
   52334:	e59f3040 	ldr	r3, [pc, #64]	; 5237c <_vfiprintf_r+0x3e4>
   52338:	e15b0003 	cmp	fp, r3
   5233c:	1affff23 	bne	51fd0 <_vfiprintf_r+0x38>
   52340:	e59dc010 	ldr	ip, [sp, #16]
   52344:	e59cb004 	ldr	fp, [ip, #4]
   52348:	eaffff27 	b	51fec <_vfiprintf_r+0x54>
   5234c:	e59dc010 	ldr	ip, [sp, #16]
   52350:	e59cb008 	ldr	fp, [ip, #8]
   52354:	eaffff24 	b	51fec <_vfiprintf_r+0x54>
   52358:	e28d3014 	add	r3, sp, #20
   5235c:	e58d3000 	str	r3, [sp]
   52360:	e59d0010 	ldr	r0, [sp, #16]
   52364:	e28d1018 	add	r1, sp, #24
   52368:	e1a0200b 	mov	r2, fp
   5236c:	e59f3024 	ldr	r3, [pc, #36]	; 52398 <_vfiprintf_r+0x400>
   52370:	e320f000 	nop	{0}
   52374:	e1a08000 	mov	r8, r0
   52378:	eaffffdb 	b	522ec <_vfiprintf_r+0x354>
   5237c:	00054858 	.word	0x00054858
   52380:	00054838 	.word	0x00054838
   52384:	00054818 	.word	0x00054818
   52388:	00054880 	.word	0x00054880
   5238c:	00054888 	.word	0x00054888
   52390:	00000000 	.word	0x00000000
   52394:	0005488c 	.word	0x0005488c
   52398:	00051f04 	.word	0x00051f04

0005239c <vfiprintf>:
   5239c:	e59fc01c 	ldr	ip, [pc, #28]	; 523c0 <vfiprintf+0x24>
   523a0:	e52d4004 	push	{r4}		; (str r4, [sp, #-4]!)
   523a4:	e1a04001 	mov	r4, r1
   523a8:	e1a03002 	mov	r3, r2
   523ac:	e1a01000 	mov	r1, r0
   523b0:	e1a02004 	mov	r2, r4
   523b4:	e59c0000 	ldr	r0, [ip]
   523b8:	e49d4004 	pop	{r4}		; (ldr r4, [sp], #4)
   523bc:	eafffef5 	b	51f98 <_vfiprintf_r>
   523c0:	20005060 	.word	0x20005060

000523c4 <_read_r>:
   523c4:	e92d4038 	push	{r3, r4, r5, lr}
   523c8:	e59f4034 	ldr	r4, [pc, #52]	; 52404 <_read_r+0x40>
   523cc:	e3a0c000 	mov	ip, #0
   523d0:	e1a05000 	mov	r5, r0
   523d4:	e1a00001 	mov	r0, r1
   523d8:	e1a01002 	mov	r1, r2
   523dc:	e1a02003 	mov	r2, r3
   523e0:	e584c000 	str	ip, [r4]
   523e4:	fafff777 	blx	501c8 <_read>
   523e8:	e3700001 	cmn	r0, #1
   523ec:	1a000002 	bne	523fc <_read_r+0x38>
   523f0:	e5943000 	ldr	r3, [r4]
   523f4:	e3530000 	cmp	r3, #0
   523f8:	15853000 	strne	r3, [r5]
   523fc:	e8bd4038 	pop	{r3, r4, r5, lr}
   52400:	e12fff1e 	bx	lr
   52404:	200054e4 	.word	0x200054e4

00052408 <cleanup_glue>:
   52408:	e92d4038 	push	{r3, r4, r5, lr}
   5240c:	e1a04001 	mov	r4, r1
   52410:	e5911000 	ldr	r1, [r1]
   52414:	e3510000 	cmp	r1, #0
   52418:	e1a05000 	mov	r5, r0
   5241c:	1bfffff9 	blne	52408 <cleanup_glue>
   52420:	e1a00005 	mov	r0, r5
   52424:	e1a01004 	mov	r1, r4
   52428:	ebfffd67 	bl	519cc <_free_r>
   5242c:	e8bd4038 	pop	{r3, r4, r5, lr}
   52430:	e12fff1e 	bx	lr

00052434 <_reclaim_reent>:
   52434:	e59f314c 	ldr	r3, [pc, #332]	; 52588 <_reclaim_reent+0x154>
   52438:	e5933000 	ldr	r3, [r3]
   5243c:	e1500003 	cmp	r0, r3
   52440:	e92d4070 	push	{r4, r5, r6, lr}
   52444:	e1a05000 	mov	r5, r0
   52448:	0a000042 	beq	52558 <_reclaim_reent+0x124>
   5244c:	e5903024 	ldr	r3, [r0, #36]	; 0x24
   52450:	e3530000 	cmp	r3, #0
   52454:	0a00001c 	beq	524cc <_reclaim_reent+0x98>
   52458:	e593200c 	ldr	r2, [r3, #12]
   5245c:	e3520000 	cmp	r2, #0
   52460:	0a000015 	beq	524bc <_reclaim_reent+0x88>
   52464:	e3a03000 	mov	r3, #0
   52468:	e1a06003 	mov	r6, r3
   5246c:	e7921103 	ldr	r1, [r2, r3, lsl #2]
   52470:	e3510000 	cmp	r1, #0
   52474:	1a000001 	bne	52480 <_reclaim_reent+0x4c>
   52478:	ea000007 	b	5249c <_reclaim_reent+0x68>
   5247c:	e1a01004 	mov	r1, r4
   52480:	e5914000 	ldr	r4, [r1]
   52484:	e1a00005 	mov	r0, r5
   52488:	ebfffd4f 	bl	519cc <_free_r>
   5248c:	e3540000 	cmp	r4, #0
   52490:	1afffff9 	bne	5247c <_reclaim_reent+0x48>
   52494:	e5953024 	ldr	r3, [r5, #36]	; 0x24
   52498:	e593200c 	ldr	r2, [r3, #12]
   5249c:	e2866001 	add	r6, r6, #1
   524a0:	e3560020 	cmp	r6, #32
   524a4:	e1a03006 	mov	r3, r6
   524a8:	1affffef 	bne	5246c <_reclaim_reent+0x38>
   524ac:	e1a01002 	mov	r1, r2
   524b0:	e1a00005 	mov	r0, r5
   524b4:	ebfffd44 	bl	519cc <_free_r>
   524b8:	e5953024 	ldr	r3, [r5, #36]	; 0x24
   524bc:	e5931000 	ldr	r1, [r3]
   524c0:	e3510000 	cmp	r1, #0
   524c4:	11a00005 	movne	r0, r5
   524c8:	1bfffd3f 	blne	519cc <_free_r>
   524cc:	e5951014 	ldr	r1, [r5, #20]
   524d0:	e3510000 	cmp	r1, #0
   524d4:	11a00005 	movne	r0, r5
   524d8:	1bfffd3b 	blne	519cc <_free_r>
   524dc:	e5951024 	ldr	r1, [r5, #36]	; 0x24
   524e0:	e3510000 	cmp	r1, #0
   524e4:	11a00005 	movne	r0, r5
   524e8:	1bfffd37 	blne	519cc <_free_r>
   524ec:	e5951038 	ldr	r1, [r5, #56]	; 0x38
   524f0:	e3510000 	cmp	r1, #0
   524f4:	11a00005 	movne	r0, r5
   524f8:	1bfffd33 	blne	519cc <_free_r>
   524fc:	e595103c 	ldr	r1, [r5, #60]	; 0x3c
   52500:	e3510000 	cmp	r1, #0
   52504:	11a00005 	movne	r0, r5
   52508:	1bfffd2f 	blne	519cc <_free_r>
   5250c:	e5951040 	ldr	r1, [r5, #64]	; 0x40
   52510:	e3510000 	cmp	r1, #0
   52514:	11a00005 	movne	r0, r5
   52518:	1bfffd2b 	blne	519cc <_free_r>
   5251c:	e595105c 	ldr	r1, [r5, #92]	; 0x5c
   52520:	e3510000 	cmp	r1, #0
   52524:	11a00005 	movne	r0, r5
   52528:	1bfffd27 	blne	519cc <_free_r>
   5252c:	e5951058 	ldr	r1, [r5, #88]	; 0x58
   52530:	e3510000 	cmp	r1, #0
   52534:	11a00005 	movne	r0, r5
   52538:	1bfffd23 	blne	519cc <_free_r>
   5253c:	e5951034 	ldr	r1, [r5, #52]	; 0x34
   52540:	e3510000 	cmp	r1, #0
   52544:	11a00005 	movne	r0, r5
   52548:	1bfffd1f 	blne	519cc <_free_r>
   5254c:	e5953018 	ldr	r3, [r5, #24]
   52550:	e3530000 	cmp	r3, #0
   52554:	1a000001 	bne	52560 <_reclaim_reent+0x12c>
   52558:	e8bd4070 	pop	{r4, r5, r6, lr}
   5255c:	e12fff1e 	bx	lr
   52560:	e1a00005 	mov	r0, r5
   52564:	e595c028 	ldr	ip, [r5, #40]	; 0x28
   52568:	e1a0e00f 	mov	lr, pc
   5256c:	e12fff1c 	bx	ip
   52570:	e5951048 	ldr	r1, [r5, #72]	; 0x48
   52574:	e3510000 	cmp	r1, #0
   52578:	0afffff6 	beq	52558 <_reclaim_reent+0x124>
   5257c:	e1a00005 	mov	r0, r5
   52580:	e8bd4070 	pop	{r4, r5, r6, lr}
   52584:	eaffff9f 	b	52408 <cleanup_glue>
   52588:	20005060 	.word	0x20005060

0005258c <__swbuf_r>:
   5258c:	e92d4070 	push	{r4, r5, r6, lr}
   52590:	e2506000 	subs	r6, r0, #0
   52594:	e1a05001 	mov	r5, r1
   52598:	e1a04002 	mov	r4, r2
   5259c:	0a000002 	beq	525ac <__swbuf_r+0x20>
   525a0:	e5963018 	ldr	r3, [r6, #24]
   525a4:	e3530000 	cmp	r3, #0
   525a8:	0a000040 	beq	526b0 <__swbuf_r+0x124>
   525ac:	e59f3104 	ldr	r3, [pc, #260]	; 526b8 <__swbuf_r+0x12c>
   525b0:	e1540003 	cmp	r4, r3
   525b4:	05964004 	ldreq	r4, [r6, #4]
   525b8:	0a000006 	beq	525d8 <__swbuf_r+0x4c>
   525bc:	e59f30f8 	ldr	r3, [pc, #248]	; 526bc <__swbuf_r+0x130>
   525c0:	e1540003 	cmp	r4, r3
   525c4:	05964008 	ldreq	r4, [r6, #8]
   525c8:	0a000002 	beq	525d8 <__swbuf_r+0x4c>
   525cc:	e59f30ec 	ldr	r3, [pc, #236]	; 526c0 <__swbuf_r+0x134>
   525d0:	e1540003 	cmp	r4, r3
   525d4:	0596400c 	ldreq	r4, [r6, #12]
   525d8:	e1d420bc 	ldrh	r2, [r4, #12]
   525dc:	e5943018 	ldr	r3, [r4, #24]
   525e0:	e3120008 	tst	r2, #8
   525e4:	e5843008 	str	r3, [r4, #8]
   525e8:	0a000021 	beq	52674 <__swbuf_r+0xe8>
   525ec:	e5942010 	ldr	r2, [r4, #16]
   525f0:	e3520000 	cmp	r2, #0
   525f4:	0a00001e 	beq	52674 <__swbuf_r+0xe8>
   525f8:	e5943000 	ldr	r3, [r4]
   525fc:	e5941014 	ldr	r1, [r4, #20]
   52600:	e0622003 	rsb	r2, r2, r3
   52604:	e1520001 	cmp	r2, r1
   52608:	e20550ff 	and	r5, r5, #255	; 0xff
   5260c:	b2822001 	addlt	r2, r2, #1
   52610:	aa00001e 	bge	52690 <__swbuf_r+0x104>
   52614:	e5940008 	ldr	r0, [r4, #8]
   52618:	e2831001 	add	r1, r3, #1
   5261c:	e2400001 	sub	r0, r0, #1
   52620:	e5840008 	str	r0, [r4, #8]
   52624:	e5841000 	str	r1, [r4]
   52628:	e5c35000 	strb	r5, [r3]
   5262c:	e5943014 	ldr	r3, [r4, #20]
   52630:	e1530002 	cmp	r3, r2
   52634:	0a000007 	beq	52658 <__swbuf_r+0xcc>
   52638:	e1d430bc 	ldrh	r3, [r4, #12]
   5263c:	e3130001 	tst	r3, #1
   52640:	1a000002 	bne	52650 <__swbuf_r+0xc4>
   52644:	e1a00005 	mov	r0, r5
   52648:	e8bd4070 	pop	{r4, r5, r6, lr}
   5264c:	e12fff1e 	bx	lr
   52650:	e355000a 	cmp	r5, #10
   52654:	1afffffa 	bne	52644 <__swbuf_r+0xb8>
   52658:	e1a00006 	mov	r0, r6
   5265c:	e1a01004 	mov	r1, r4
   52660:	ebfffafb 	bl	51254 <_fflush_r>
   52664:	e3500000 	cmp	r0, #0
   52668:	0afffff5 	beq	52644 <__swbuf_r+0xb8>
   5266c:	e3e00000 	mvn	r0, #0
   52670:	eafffff4 	b	52648 <__swbuf_r+0xbc>
   52674:	e1a00006 	mov	r0, r6
   52678:	e1a01004 	mov	r1, r4
   5267c:	eb000016 	bl	526dc <__swsetup_r>
   52680:	e3500000 	cmp	r0, #0
   52684:	05942010 	ldreq	r2, [r4, #16]
   52688:	0affffda 	beq	525f8 <__swbuf_r+0x6c>
   5268c:	eafffff6 	b	5266c <__swbuf_r+0xe0>
   52690:	e1a00006 	mov	r0, r6
   52694:	e1a01004 	mov	r1, r4
   52698:	ebfffaed 	bl	51254 <_fflush_r>
   5269c:	e3500000 	cmp	r0, #0
   526a0:	1afffff1 	bne	5266c <__swbuf_r+0xe0>
   526a4:	e5943000 	ldr	r3, [r4]
   526a8:	e3a02001 	mov	r2, #1
   526ac:	eaffffd8 	b	52614 <__swbuf_r+0x88>
   526b0:	ebfffb41 	bl	513bc <__sinit>
   526b4:	eaffffbc 	b	525ac <__swbuf_r+0x20>
   526b8:	00054858 	.word	0x00054858
   526bc:	00054838 	.word	0x00054838
   526c0:	00054818 	.word	0x00054818

000526c4 <__swbuf>:
   526c4:	e59f300c 	ldr	r3, [pc, #12]	; 526d8 <__swbuf+0x14>
   526c8:	e1a02001 	mov	r2, r1
   526cc:	e1a01000 	mov	r1, r0
   526d0:	e5930000 	ldr	r0, [r3]
   526d4:	eaffffac 	b	5258c <__swbuf_r>
   526d8:	20005060 	.word	0x20005060

000526dc <__swsetup_r>:
   526dc:	e59f317c 	ldr	r3, [pc, #380]	; 52860 <__swsetup_r+0x184>
   526e0:	e92d4070 	push	{r4, r5, r6, lr}
   526e4:	e5935000 	ldr	r5, [r3]
   526e8:	e3550000 	cmp	r5, #0
   526ec:	e1a06000 	mov	r6, r0
   526f0:	e1a04001 	mov	r4, r1
   526f4:	0a000002 	beq	52704 <__swsetup_r+0x28>
   526f8:	e5953018 	ldr	r3, [r5, #24]
   526fc:	e3530000 	cmp	r3, #0
   52700:	0a00003d 	beq	527fc <__swsetup_r+0x120>
   52704:	e59f3158 	ldr	r3, [pc, #344]	; 52864 <__swsetup_r+0x188>
   52708:	e1540003 	cmp	r4, r3
   5270c:	05954004 	ldreq	r4, [r5, #4]
   52710:	0a000006 	beq	52730 <__swsetup_r+0x54>
   52714:	e59f314c 	ldr	r3, [pc, #332]	; 52868 <__swsetup_r+0x18c>
   52718:	e1540003 	cmp	r4, r3
   5271c:	05954008 	ldreq	r4, [r5, #8]
   52720:	0a000002 	beq	52730 <__swsetup_r+0x54>
   52724:	e59f3140 	ldr	r3, [pc, #320]	; 5286c <__swsetup_r+0x190>
   52728:	e1540003 	cmp	r4, r3
   5272c:	0595400c 	ldreq	r4, [r5, #12]
   52730:	e1d4c0bc 	ldrh	ip, [r4, #12]
   52734:	e31c0008 	tst	ip, #8
   52738:	e1a0300c 	mov	r3, ip
   5273c:	0a00000c 	beq	52774 <__swsetup_r+0x98>
   52740:	e5942010 	ldr	r2, [r4, #16]
   52744:	e3520000 	cmp	r2, #0
   52748:	0a000012 	beq	52798 <__swsetup_r+0xbc>
   5274c:	e2131001 	ands	r1, r3, #1
   52750:	1a000019 	bne	527bc <__swsetup_r+0xe0>
   52754:	e3130002 	tst	r3, #2
   52758:	05941014 	ldreq	r1, [r4, #20]
   5275c:	e3520000 	cmp	r2, #0
   52760:	e5841008 	str	r1, [r4, #8]
   52764:	13a00000 	movne	r0, #0
   52768:	0a00001b 	beq	527dc <__swsetup_r+0x100>
   5276c:	e8bd4070 	pop	{r4, r5, r6, lr}
   52770:	e12fff1e 	bx	lr
   52774:	e31c0010 	tst	ip, #16
   52778:	0a000032 	beq	52848 <__swsetup_r+0x16c>
   5277c:	e31c0004 	tst	ip, #4
   52780:	1a000020 	bne	52808 <__swsetup_r+0x12c>
   52784:	e5942010 	ldr	r2, [r4, #16]
   52788:	e38c3008 	orr	r3, ip, #8
   5278c:	e3520000 	cmp	r2, #0
   52790:	e1c430bc 	strh	r3, [r4, #12]
   52794:	1affffec 	bne	5274c <__swsetup_r+0x70>
   52798:	e2031d0a 	and	r1, r3, #640	; 0x280
   5279c:	e3510c02 	cmp	r1, #512	; 0x200
   527a0:	0affffe9 	beq	5274c <__swsetup_r+0x70>
   527a4:	e1a00006 	mov	r0, r6
   527a8:	e1a01004 	mov	r1, r4
   527ac:	eb000166 	bl	52d4c <__smakebuf_r>
   527b0:	e1d430bc 	ldrh	r3, [r4, #12]
   527b4:	e5942010 	ldr	r2, [r4, #16]
   527b8:	eaffffe3 	b	5274c <__swsetup_r+0x70>
   527bc:	e5941014 	ldr	r1, [r4, #20]
   527c0:	e3a03000 	mov	r3, #0
   527c4:	e2611000 	rsb	r1, r1, #0
   527c8:	e3520000 	cmp	r2, #0
   527cc:	e5841018 	str	r1, [r4, #24]
   527d0:	e5843008 	str	r3, [r4, #8]
   527d4:	13a00000 	movne	r0, #0
   527d8:	1affffe3 	bne	5276c <__swsetup_r+0x90>
   527dc:	e1d430bc 	ldrh	r3, [r4, #12]
   527e0:	e3130080 	tst	r3, #128	; 0x80
   527e4:	13833040 	orrne	r3, r3, #64	; 0x40
   527e8:	11c430bc 	strhne	r3, [r4, #12]
   527ec:	13e00000 	mvnne	r0, #0
   527f0:	01a00002 	moveq	r0, r2
   527f4:	e8bd4070 	pop	{r4, r5, r6, lr}
   527f8:	e12fff1e 	bx	lr
   527fc:	e1a00005 	mov	r0, r5
   52800:	ebfffaed 	bl	513bc <__sinit>
   52804:	eaffffbe 	b	52704 <__swsetup_r+0x28>
   52808:	e5941034 	ldr	r1, [r4, #52]	; 0x34
   5280c:	e3510000 	cmp	r1, #0
   52810:	0a000007 	beq	52834 <__swsetup_r+0x158>
   52814:	e2843044 	add	r3, r4, #68	; 0x44
   52818:	e1510003 	cmp	r1, r3
   5281c:	0a000002 	beq	5282c <__swsetup_r+0x150>
   52820:	e1a00006 	mov	r0, r6
   52824:	ebfffc68 	bl	519cc <_free_r>
   52828:	e1d4c0bc 	ldrh	ip, [r4, #12]
   5282c:	e3a03000 	mov	r3, #0
   52830:	e5843034 	str	r3, [r4, #52]	; 0x34
   52834:	e5942010 	ldr	r2, [r4, #16]
   52838:	e3a03000 	mov	r3, #0
   5283c:	e3ccc024 	bic	ip, ip, #36	; 0x24
   52840:	e884000c 	stm	r4, {r2, r3}
   52844:	eaffffcf 	b	52788 <__swsetup_r+0xac>
   52848:	e38cc040 	orr	ip, ip, #64	; 0x40
   5284c:	e3a03009 	mov	r3, #9
   52850:	e5863000 	str	r3, [r6]
   52854:	e3e00000 	mvn	r0, #0
   52858:	e1c4c0bc 	strh	ip, [r4, #12]
   5285c:	eaffffc2 	b	5276c <__swsetup_r+0x90>
   52860:	20005060 	.word	0x20005060
   52864:	00054858 	.word	0x00054858
   52868:	00054838 	.word	0x00054838
   5286c:	00054818 	.word	0x00054818

00052870 <__sfvwrite_r>:
   52870:	e92d4ff0 	push	{r4, r5, r6, r7, r8, r9, sl, fp, lr}
   52874:	e5923008 	ldr	r3, [r2, #8]
   52878:	e3530000 	cmp	r3, #0
   5287c:	e24dd00c 	sub	sp, sp, #12
   52880:	e1a06002 	mov	r6, r2
   52884:	e1a0b000 	mov	fp, r0
   52888:	e1a04001 	mov	r4, r1
   5288c:	0a000021 	beq	52918 <__sfvwrite_r+0xa8>
   52890:	e1d130bc 	ldrh	r3, [r1, #12]
   52894:	e1a03803 	lsl	r3, r3, #16
   52898:	e3130702 	tst	r3, #524288	; 0x80000
   5289c:	e1a08823 	lsr	r8, r3, #16
   528a0:	0a000020 	beq	52928 <__sfvwrite_r+0xb8>
   528a4:	e5912010 	ldr	r2, [r1, #16]
   528a8:	e3520000 	cmp	r2, #0
   528ac:	0a00001d 	beq	52928 <__sfvwrite_r+0xb8>
   528b0:	e2189002 	ands	r9, r8, #2
   528b4:	e5965000 	ldr	r5, [r6]
   528b8:	0a000025 	beq	52954 <__sfvwrite_r+0xe4>
   528bc:	e3a08000 	mov	r8, #0
   528c0:	e59f9480 	ldr	r9, [pc, #1152]	; 52d48 <__sfvwrite_r+0x4d8>
   528c4:	e1a07008 	mov	r7, r8
   528c8:	e3570000 	cmp	r7, #0
   528cc:	e1a02008 	mov	r2, r8
   528d0:	e1a0000b 	mov	r0, fp
   528d4:	0a000046 	beq	529f4 <__sfvwrite_r+0x184>
   528d8:	e1570009 	cmp	r7, r9
   528dc:	31a03007 	movcc	r3, r7
   528e0:	21a03009 	movcs	r3, r9
   528e4:	e5941020 	ldr	r1, [r4, #32]
   528e8:	e594c028 	ldr	ip, [r4, #40]	; 0x28
   528ec:	e1a0e00f 	mov	lr, pc
   528f0:	e12fff1c 	bx	ip
   528f4:	e3500000 	cmp	r0, #0
   528f8:	da000046 	ble	52a18 <__sfvwrite_r+0x1a8>
   528fc:	e5963008 	ldr	r3, [r6, #8]
   52900:	e0603003 	rsb	r3, r0, r3
   52904:	e3530000 	cmp	r3, #0
   52908:	e0888000 	add	r8, r8, r0
   5290c:	e0607007 	rsb	r7, r0, r7
   52910:	e5863008 	str	r3, [r6, #8]
   52914:	1affffeb 	bne	528c8 <__sfvwrite_r+0x58>
   52918:	e3a00000 	mov	r0, #0
   5291c:	e28dd00c 	add	sp, sp, #12
   52920:	e8bd4ff0 	pop	{r4, r5, r6, r7, r8, r9, sl, fp, lr}
   52924:	e12fff1e 	bx	lr
   52928:	e1a0000b 	mov	r0, fp
   5292c:	e1a01004 	mov	r1, r4
   52930:	ebffff69 	bl	526dc <__swsetup_r>
   52934:	e3500000 	cmp	r0, #0
   52938:	1a0000fc 	bne	52d30 <__sfvwrite_r+0x4c0>
   5293c:	e1d430bc 	ldrh	r3, [r4, #12]
   52940:	e1a03803 	lsl	r3, r3, #16
   52944:	e1a08823 	lsr	r8, r3, #16
   52948:	e2189002 	ands	r9, r8, #2
   5294c:	e5965000 	ldr	r5, [r6]
   52950:	1affffd9 	bne	528bc <__sfvwrite_r+0x4c>
   52954:	e2188001 	ands	r8, r8, #1
   52958:	1a000035 	bne	52a34 <__sfvwrite_r+0x1c4>
   5295c:	e1a07008 	mov	r7, r8
   52960:	e3570000 	cmp	r7, #0
   52964:	0a00001e 	beq	529e4 <__sfvwrite_r+0x174>
   52968:	e3130402 	tst	r3, #33554432	; 0x2000000
   5296c:	e594a008 	ldr	sl, [r4, #8]
   52970:	e1a03823 	lsr	r3, r3, #16
   52974:	0a00005f 	beq	52af8 <__sfvwrite_r+0x288>
   52978:	e157000a 	cmp	r7, sl
   5297c:	3a000087 	bcc	52ba0 <__sfvwrite_r+0x330>
   52980:	e3130d12 	tst	r3, #1152	; 0x480
   52984:	1a000094 	bne	52bdc <__sfvwrite_r+0x36c>
   52988:	e5940000 	ldr	r0, [r4]
   5298c:	e1a0900a 	mov	r9, sl
   52990:	e1a01008 	mov	r1, r8
   52994:	e1a02009 	mov	r2, r9
   52998:	eb00018d 	bl	52fd4 <memmove>
   5299c:	e5942000 	ldr	r2, [r4]
   529a0:	e5941008 	ldr	r1, [r4, #8]
   529a4:	e0823009 	add	r3, r2, r9
   529a8:	e06aa001 	rsb	sl, sl, r1
   529ac:	e584a008 	str	sl, [r4, #8]
   529b0:	e5843000 	str	r3, [r4]
   529b4:	e1a02007 	mov	r2, r7
   529b8:	e5963008 	ldr	r3, [r6, #8]
   529bc:	e0623003 	rsb	r3, r2, r3
   529c0:	e3530000 	cmp	r3, #0
   529c4:	e0888002 	add	r8, r8, r2
   529c8:	e0627007 	rsb	r7, r2, r7
   529cc:	e5863008 	str	r3, [r6, #8]
   529d0:	0affffd0 	beq	52918 <__sfvwrite_r+0xa8>
   529d4:	e1d430bc 	ldrh	r3, [r4, #12]
   529d8:	e3570000 	cmp	r7, #0
   529dc:	e1a03803 	lsl	r3, r3, #16
   529e0:	1affffe0 	bne	52968 <__sfvwrite_r+0xf8>
   529e4:	e5958000 	ldr	r8, [r5]
   529e8:	e5957004 	ldr	r7, [r5, #4]
   529ec:	e2855008 	add	r5, r5, #8
   529f0:	eaffffda 	b	52960 <__sfvwrite_r+0xf0>
   529f4:	e5958000 	ldr	r8, [r5]
   529f8:	e5957004 	ldr	r7, [r5, #4]
   529fc:	e2855008 	add	r5, r5, #8
   52a00:	eaffffb0 	b	528c8 <__sfvwrite_r+0x58>
   52a04:	e1a0000b 	mov	r0, fp
   52a08:	e1a01004 	mov	r1, r4
   52a0c:	ebfffa10 	bl	51254 <_fflush_r>
   52a10:	e3500000 	cmp	r0, #0
   52a14:	0a00004b 	beq	52b48 <__sfvwrite_r+0x2d8>
   52a18:	e1d430bc 	ldrh	r3, [r4, #12]
   52a1c:	e3833040 	orr	r3, r3, #64	; 0x40
   52a20:	e3e00000 	mvn	r0, #0
   52a24:	e1c430bc 	strh	r3, [r4, #12]
   52a28:	e28dd00c 	add	sp, sp, #12
   52a2c:	e8bd4ff0 	pop	{r4, r5, r6, r7, r8, r9, sl, fp, lr}
   52a30:	e12fff1e 	bx	lr
   52a34:	e58d9004 	str	r9, [sp, #4]
   52a38:	e1a0a009 	mov	sl, r9
   52a3c:	e1a08009 	mov	r8, r9
   52a40:	e3580000 	cmp	r8, #0
   52a44:	0a000025 	beq	52ae0 <__sfvwrite_r+0x270>
   52a48:	e59d3004 	ldr	r3, [sp, #4]
   52a4c:	e3530000 	cmp	r3, #0
   52a50:	0a000056 	beq	52bb0 <__sfvwrite_r+0x340>
   52a54:	e5942010 	ldr	r2, [r4, #16]
   52a58:	e5940000 	ldr	r0, [r4]
   52a5c:	e1590008 	cmp	r9, r8
   52a60:	31a03009 	movcc	r3, r9
   52a64:	21a03008 	movcs	r3, r8
   52a68:	e1500002 	cmp	r0, r2
   52a6c:	e1a07003 	mov	r7, r3
   52a70:	e5941008 	ldr	r1, [r4, #8]
   52a74:	e5942014 	ldr	r2, [r4, #20]
   52a78:	9a000002 	bls	52a88 <__sfvwrite_r+0x218>
   52a7c:	e081c002 	add	ip, r1, r2
   52a80:	e153000c 	cmp	r3, ip
   52a84:	ca00008b 	bgt	52cb8 <__sfvwrite_r+0x448>
   52a88:	e1530002 	cmp	r3, r2
   52a8c:	ba00002f 	blt	52b50 <__sfvwrite_r+0x2e0>
   52a90:	e1a03002 	mov	r3, r2
   52a94:	e1a0000b 	mov	r0, fp
   52a98:	e5941020 	ldr	r1, [r4, #32]
   52a9c:	e1a0200a 	mov	r2, sl
   52aa0:	e594c028 	ldr	ip, [r4, #40]	; 0x28
   52aa4:	e1a0e00f 	mov	lr, pc
   52aa8:	e12fff1c 	bx	ip
   52aac:	e2507000 	subs	r7, r0, #0
   52ab0:	daffffd8 	ble	52a18 <__sfvwrite_r+0x1a8>
   52ab4:	e0599007 	subs	r9, r9, r7
   52ab8:	0a000031 	beq	52b84 <__sfvwrite_r+0x314>
   52abc:	e5963008 	ldr	r3, [r6, #8]
   52ac0:	e0673003 	rsb	r3, r7, r3
   52ac4:	e3530000 	cmp	r3, #0
   52ac8:	e08aa007 	add	sl, sl, r7
   52acc:	e0678008 	rsb	r8, r7, r8
   52ad0:	e5863008 	str	r3, [r6, #8]
   52ad4:	0affff8f 	beq	52918 <__sfvwrite_r+0xa8>
   52ad8:	e3580000 	cmp	r8, #0
   52adc:	1affffd9 	bne	52a48 <__sfvwrite_r+0x1d8>
   52ae0:	e3a03000 	mov	r3, #0
   52ae4:	e595a000 	ldr	sl, [r5]
   52ae8:	e5958004 	ldr	r8, [r5, #4]
   52aec:	e58d3004 	str	r3, [sp, #4]
   52af0:	e2855008 	add	r5, r5, #8
   52af4:	eaffffd1 	b	52a40 <__sfvwrite_r+0x1d0>
   52af8:	e5940000 	ldr	r0, [r4]
   52afc:	e5943010 	ldr	r3, [r4, #16]
   52b00:	e1500003 	cmp	r0, r3
   52b04:	8a000002 	bhi	52b14 <__sfvwrite_r+0x2a4>
   52b08:	e5949014 	ldr	r9, [r4, #20]
   52b0c:	e1570009 	cmp	r7, r9
   52b10:	2a000058 	bcs	52c78 <__sfvwrite_r+0x408>
   52b14:	e157000a 	cmp	r7, sl
   52b18:	31a0a007 	movcc	sl, r7
   52b1c:	e1a0200a 	mov	r2, sl
   52b20:	e1a01008 	mov	r1, r8
   52b24:	eb00012a 	bl	52fd4 <memmove>
   52b28:	e5943008 	ldr	r3, [r4, #8]
   52b2c:	e5942000 	ldr	r2, [r4]
   52b30:	e06a3003 	rsb	r3, sl, r3
   52b34:	e082200a 	add	r2, r2, sl
   52b38:	e3530000 	cmp	r3, #0
   52b3c:	e5843008 	str	r3, [r4, #8]
   52b40:	e5842000 	str	r2, [r4]
   52b44:	0affffae 	beq	52a04 <__sfvwrite_r+0x194>
   52b48:	e1a0200a 	mov	r2, sl
   52b4c:	eaffff99 	b	529b8 <__sfvwrite_r+0x148>
   52b50:	e1a02003 	mov	r2, r3
   52b54:	e1a0100a 	mov	r1, sl
   52b58:	e58d3000 	str	r3, [sp]
   52b5c:	eb00011c 	bl	52fd4 <memmove>
   52b60:	e59d3000 	ldr	r3, [sp]
   52b64:	e5942008 	ldr	r2, [r4, #8]
   52b68:	e5941000 	ldr	r1, [r4]
   52b6c:	e0632002 	rsb	r2, r3, r2
   52b70:	e0599007 	subs	r9, r9, r7
   52b74:	e0813003 	add	r3, r1, r3
   52b78:	e5842008 	str	r2, [r4, #8]
   52b7c:	e5843000 	str	r3, [r4]
   52b80:	1affffcd 	bne	52abc <__sfvwrite_r+0x24c>
   52b84:	e1a0000b 	mov	r0, fp
   52b88:	e1a01004 	mov	r1, r4
   52b8c:	ebfff9b0 	bl	51254 <_fflush_r>
   52b90:	e3500000 	cmp	r0, #0
   52b94:	1affff9f 	bne	52a18 <__sfvwrite_r+0x1a8>
   52b98:	e58d9004 	str	r9, [sp, #4]
   52b9c:	eaffffc6 	b	52abc <__sfvwrite_r+0x24c>
   52ba0:	e5940000 	ldr	r0, [r4]
   52ba4:	e1a0a007 	mov	sl, r7
   52ba8:	e1a09007 	mov	r9, r7
   52bac:	eaffff77 	b	52990 <__sfvwrite_r+0x120>
   52bb0:	e1a0000a 	mov	r0, sl
   52bb4:	e3a0100a 	mov	r1, #10
   52bb8:	e1a02008 	mov	r2, r8
   52bbc:	eb0000bf 	bl	52ec0 <memchr>
   52bc0:	e3500000 	cmp	r0, #0
   52bc4:	12809001 	addne	r9, r0, #1
   52bc8:	e3a03001 	mov	r3, #1
   52bcc:	106a9009 	rsbne	r9, sl, r9
   52bd0:	02889001 	addeq	r9, r8, #1
   52bd4:	e58d3004 	str	r3, [sp, #4]
   52bd8:	eaffff9d 	b	52a54 <__sfvwrite_r+0x1e4>
   52bdc:	e5941010 	ldr	r1, [r4, #16]
   52be0:	e594c000 	ldr	ip, [r4]
   52be4:	e594a014 	ldr	sl, [r4, #20]
   52be8:	e061c00c 	rsb	ip, r1, ip
   52bec:	e08aa08a 	add	sl, sl, sl, lsl #1
   52bf0:	e28c2001 	add	r2, ip, #1
   52bf4:	e08aafaa 	add	sl, sl, sl, lsr #31
   52bf8:	e0822007 	add	r2, r2, r7
   52bfc:	e1a0a0ca 	asr	sl, sl, #1
   52c00:	e15a0002 	cmp	sl, r2
   52c04:	31a0a002 	movcc	sl, r2
   52c08:	21a0200a 	movcs	r2, sl
   52c0c:	e3130b01 	tst	r3, #1024	; 0x400
   52c10:	0a000038 	beq	52cf8 <__sfvwrite_r+0x488>
   52c14:	e1a01002 	mov	r1, r2
   52c18:	e1a0000b 	mov	r0, fp
   52c1c:	e58dc000 	str	ip, [sp]
   52c20:	ebfffba9 	bl	51acc <_malloc_r>
   52c24:	e2509000 	subs	r9, r0, #0
   52c28:	e59dc000 	ldr	ip, [sp]
   52c2c:	0a000041 	beq	52d38 <__sfvwrite_r+0x4c8>
   52c30:	e1a0200c 	mov	r2, ip
   52c34:	e5941010 	ldr	r1, [r4, #16]
   52c38:	e58dc000 	str	ip, [sp]
   52c3c:	ebfffae9 	bl	517e8 <memcpy>
   52c40:	e1d420bc 	ldrh	r2, [r4, #12]
   52c44:	e3c22d12 	bic	r2, r2, #1152	; 0x480
   52c48:	e3822080 	orr	r2, r2, #128	; 0x80
   52c4c:	e1c420bc 	strh	r2, [r4, #12]
   52c50:	e59dc000 	ldr	ip, [sp]
   52c54:	e089000c 	add	r0, r9, ip
   52c58:	e06cc00a 	rsb	ip, ip, sl
   52c5c:	e5849010 	str	r9, [r4, #16]
   52c60:	e584a014 	str	sl, [r4, #20]
   52c64:	e5840000 	str	r0, [r4]
   52c68:	e584c008 	str	ip, [r4, #8]
   52c6c:	e1a0a007 	mov	sl, r7
   52c70:	e1a09007 	mov	r9, r7
   52c74:	eaffff45 	b	52990 <__sfvwrite_r+0x120>
   52c78:	e3e00102 	mvn	r0, #-2147483648	; 0x80000000
   52c7c:	e1570000 	cmp	r7, r0
   52c80:	31a00007 	movcc	r0, r7
   52c84:	e1a01009 	mov	r1, r9
   52c88:	fa0002e3 	blx	5381c <__aeabi_idiv>
   52c8c:	e5941020 	ldr	r1, [r4, #32]
   52c90:	e0030990 	mul	r3, r0, r9
   52c94:	e1a02008 	mov	r2, r8
   52c98:	e1a0000b 	mov	r0, fp
   52c9c:	e594c028 	ldr	ip, [r4, #40]	; 0x28
   52ca0:	e1a0e00f 	mov	lr, pc
   52ca4:	e12fff1c 	bx	ip
   52ca8:	e3500000 	cmp	r0, #0
   52cac:	daffff59 	ble	52a18 <__sfvwrite_r+0x1a8>
   52cb0:	e1a02000 	mov	r2, r0
   52cb4:	eaffff3f 	b	529b8 <__sfvwrite_r+0x148>
   52cb8:	e1a0200c 	mov	r2, ip
   52cbc:	e1a0100a 	mov	r1, sl
   52cc0:	e58dc000 	str	ip, [sp]
   52cc4:	eb0000c2 	bl	52fd4 <memmove>
   52cc8:	e59dc000 	ldr	ip, [sp]
   52ccc:	e5943000 	ldr	r3, [r4]
   52cd0:	e083300c 	add	r3, r3, ip
   52cd4:	e5843000 	str	r3, [r4]
   52cd8:	e1a0000b 	mov	r0, fp
   52cdc:	e1a01004 	mov	r1, r4
   52ce0:	ebfff95b 	bl	51254 <_fflush_r>
   52ce4:	e3500000 	cmp	r0, #0
   52ce8:	e59dc000 	ldr	ip, [sp]
   52cec:	1affff49 	bne	52a18 <__sfvwrite_r+0x1a8>
   52cf0:	e1a0700c 	mov	r7, ip
   52cf4:	eaffff6e 	b	52ab4 <__sfvwrite_r+0x244>
   52cf8:	e1a0000b 	mov	r0, fp
   52cfc:	e58dc000 	str	ip, [sp]
   52d00:	eb000100 	bl	53108 <_realloc_r>
   52d04:	e2509000 	subs	r9, r0, #0
   52d08:	e59dc000 	ldr	ip, [sp]
   52d0c:	1affffd0 	bne	52c54 <__sfvwrite_r+0x3e4>
   52d10:	e1a0000b 	mov	r0, fp
   52d14:	e5941010 	ldr	r1, [r4, #16]
   52d18:	ebfffb2b 	bl	519cc <_free_r>
   52d1c:	e1d430bc 	ldrh	r3, [r4, #12]
   52d20:	e3a0200c 	mov	r2, #12
   52d24:	e3c33080 	bic	r3, r3, #128	; 0x80
   52d28:	e58b2000 	str	r2, [fp]
   52d2c:	eaffff3a 	b	52a1c <__sfvwrite_r+0x1ac>
   52d30:	e3e00000 	mvn	r0, #0
   52d34:	eafffef8 	b	5291c <__sfvwrite_r+0xac>
   52d38:	e3a0300c 	mov	r3, #12
   52d3c:	e58b3000 	str	r3, [fp]
   52d40:	e1d430bc 	ldrh	r3, [r4, #12]
   52d44:	eaffff34 	b	52a1c <__sfvwrite_r+0x1ac>
   52d48:	7ffffc00 	.word	0x7ffffc00

00052d4c <__smakebuf_r>:
   52d4c:	e92d40f0 	push	{r4, r5, r6, r7, lr}
   52d50:	e1d130bc 	ldrh	r3, [r1, #12]
   52d54:	e3130002 	tst	r3, #2
   52d58:	e24dd044 	sub	sp, sp, #68	; 0x44
   52d5c:	e1a04001 	mov	r4, r1
   52d60:	e1a02003 	mov	r2, r3
   52d64:	e1a05000 	mov	r5, r0
   52d68:	1a00002c 	bne	52e20 <__smakebuf_r+0xd4>
   52d6c:	e1d110fe 	ldrsh	r1, [r1, #14]
   52d70:	e3510000 	cmp	r1, #0
   52d74:	ba000011 	blt	52dc0 <__smakebuf_r+0x74>
   52d78:	e28d2004 	add	r2, sp, #4
   52d7c:	eb000277 	bl	53760 <_fstat_r>
   52d80:	e3500000 	cmp	r0, #0
   52d84:	ba00000b 	blt	52db8 <__smakebuf_r+0x6c>
   52d88:	e59d3008 	ldr	r3, [sp, #8]
   52d8c:	e2033a0f 	and	r3, r3, #61440	; 0xf000
   52d90:	e2532a02 	subs	r2, r3, #8192	; 0x2000
   52d94:	e2727000 	rsbs	r7, r2, #0
   52d98:	e0b77002 	adcs	r7, r7, r2
   52d9c:	e3530902 	cmp	r3, #32768	; 0x8000
   52da0:	0a000026 	beq	52e40 <__smakebuf_r+0xf4>
   52da4:	e1d430bc 	ldrh	r3, [r4, #12]
   52da8:	e3833b02 	orr	r3, r3, #2048	; 0x800
   52dac:	e1c430bc 	strh	r3, [r4, #12]
   52db0:	e3a06b01 	mov	r6, #1024	; 0x400
   52db4:	ea000007 	b	52dd8 <__smakebuf_r+0x8c>
   52db8:	e1d430bc 	ldrh	r3, [r4, #12]
   52dbc:	e1a02003 	mov	r2, r3
   52dc0:	e3833b02 	orr	r3, r3, #2048	; 0x800
   52dc4:	e3120080 	tst	r2, #128	; 0x80
   52dc8:	e1c430bc 	strh	r3, [r4, #12]
   52dcc:	13a06040 	movne	r6, #64	; 0x40
   52dd0:	03a06b01 	moveq	r6, #1024	; 0x400
   52dd4:	e3a07000 	mov	r7, #0
   52dd8:	e1a00005 	mov	r0, r5
   52ddc:	e1a01006 	mov	r1, r6
   52de0:	ebfffb39 	bl	51acc <_malloc_r>
   52de4:	e3500000 	cmp	r0, #0
   52de8:	e1d430bc 	ldrh	r3, [r4, #12]
   52dec:	0a000027 	beq	52e90 <__smakebuf_r+0x144>
   52df0:	e59f20c0 	ldr	r2, [pc, #192]	; 52eb8 <__smakebuf_r+0x16c>
   52df4:	e3833080 	orr	r3, r3, #128	; 0x80
   52df8:	e3570000 	cmp	r7, #0
   52dfc:	e5852028 	str	r2, [r5, #40]	; 0x28
   52e00:	e1c430bc 	strh	r3, [r4, #12]
   52e04:	e5840000 	str	r0, [r4]
   52e08:	e5840010 	str	r0, [r4, #16]
   52e0c:	e5846014 	str	r6, [r4, #20]
   52e10:	1a000014 	bne	52e68 <__smakebuf_r+0x11c>
   52e14:	e28dd044 	add	sp, sp, #68	; 0x44
   52e18:	e8bd40f0 	pop	{r4, r5, r6, r7, lr}
   52e1c:	e12fff1e 	bx	lr
   52e20:	e2813047 	add	r3, r1, #71	; 0x47
   52e24:	e3a02001 	mov	r2, #1
   52e28:	e5813000 	str	r3, [r1]
   52e2c:	e5813010 	str	r3, [r1, #16]
   52e30:	e5812014 	str	r2, [r1, #20]
   52e34:	e28dd044 	add	sp, sp, #68	; 0x44
   52e38:	e8bd40f0 	pop	{r4, r5, r6, r7, lr}
   52e3c:	e12fff1e 	bx	lr
   52e40:	e59f3074 	ldr	r3, [pc, #116]	; 52ebc <__smakebuf_r+0x170>
   52e44:	e594202c 	ldr	r2, [r4, #44]	; 0x2c
   52e48:	e1520003 	cmp	r2, r3
   52e4c:	1affffd4 	bne	52da4 <__smakebuf_r+0x58>
   52e50:	e1d430bc 	ldrh	r3, [r4, #12]
   52e54:	e3a06b01 	mov	r6, #1024	; 0x400
   52e58:	e1833006 	orr	r3, r3, r6
   52e5c:	e1c430bc 	strh	r3, [r4, #12]
   52e60:	e5846050 	str	r6, [r4, #80]	; 0x50
   52e64:	eaffffdb 	b	52dd8 <__smakebuf_r+0x8c>
   52e68:	e1a00005 	mov	r0, r5
   52e6c:	e1d410fe 	ldrsh	r1, [r4, #14]
   52e70:	eb00024a 	bl	537a0 <_isatty_r>
   52e74:	e3500000 	cmp	r0, #0
   52e78:	11d430bc 	ldrhne	r3, [r4, #12]
   52e7c:	13833001 	orrne	r3, r3, #1
   52e80:	11c430bc 	strhne	r3, [r4, #12]
   52e84:	e28dd044 	add	sp, sp, #68	; 0x44
   52e88:	e8bd40f0 	pop	{r4, r5, r6, r7, lr}
   52e8c:	e12fff1e 	bx	lr
   52e90:	e3130c02 	tst	r3, #512	; 0x200
   52e94:	1affffde 	bne	52e14 <__smakebuf_r+0xc8>
   52e98:	e2842047 	add	r2, r4, #71	; 0x47
   52e9c:	e3833002 	orr	r3, r3, #2
   52ea0:	e3a01001 	mov	r1, #1
   52ea4:	e1c430bc 	strh	r3, [r4, #12]
   52ea8:	e5842000 	str	r2, [r4]
   52eac:	e5842010 	str	r2, [r4, #16]
   52eb0:	e5841014 	str	r1, [r4, #20]
   52eb4:	eaffffd6 	b	52e14 <__smakebuf_r+0xc8>
   52eb8:	00051330 	.word	0x00051330
   52ebc:	00051da0 	.word	0x00051da0

00052ec0 <memchr>:
   52ec0:	e3100003 	tst	r0, #3
   52ec4:	e92d0070 	push	{r4, r5, r6}
   52ec8:	e20110ff 	and	r1, r1, #255	; 0xff
   52ecc:	0a00003a 	beq	52fbc <memchr+0xfc>
   52ed0:	e3520000 	cmp	r2, #0
   52ed4:	e242c001 	sub	ip, r2, #1
   52ed8:	0a000021 	beq	52f64 <memchr+0xa4>
   52edc:	e5d03000 	ldrb	r3, [r0]
   52ee0:	e1530001 	cmp	r3, r1
   52ee4:	0a00001f 	beq	52f68 <memchr+0xa8>
   52ee8:	e2803001 	add	r3, r0, #1
   52eec:	ea000006 	b	52f0c <memchr+0x4c>
   52ef0:	e35c0000 	cmp	ip, #0
   52ef4:	0a00001a 	beq	52f64 <memchr+0xa4>
   52ef8:	e5d02000 	ldrb	r2, [r0]
   52efc:	e1520001 	cmp	r2, r1
   52f00:	e2833001 	add	r3, r3, #1
   52f04:	e24cc001 	sub	ip, ip, #1
   52f08:	0a000016 	beq	52f68 <memchr+0xa8>
   52f0c:	e3130003 	tst	r3, #3
   52f10:	e1a00003 	mov	r0, r3
   52f14:	1afffff5 	bne	52ef0 <memchr+0x30>
   52f18:	e35c0003 	cmp	ip, #3
   52f1c:	8a000013 	bhi	52f70 <memchr+0xb0>
   52f20:	e35c0000 	cmp	ip, #0
   52f24:	e24c4001 	sub	r4, ip, #1
   52f28:	0a000025 	beq	52fc4 <memchr+0x104>
   52f2c:	e5d03000 	ldrb	r3, [r0]
   52f30:	e1530001 	cmp	r3, r1
   52f34:	0a00000b 	beq	52f68 <memchr+0xa8>
   52f38:	e2802001 	add	r2, r0, #1
   52f3c:	e3a03000 	mov	r3, #0
   52f40:	ea000004 	b	52f58 <memchr+0x98>
   52f44:	e5d0c000 	ldrb	ip, [r0]
   52f48:	e15c0001 	cmp	ip, r1
   52f4c:	e2822001 	add	r2, r2, #1
   52f50:	e2833001 	add	r3, r3, #1
   52f54:	0a000003 	beq	52f68 <memchr+0xa8>
   52f58:	e1530004 	cmp	r3, r4
   52f5c:	e1a00002 	mov	r0, r2
   52f60:	1afffff7 	bne	52f44 <memchr+0x84>
   52f64:	e3a00000 	mov	r0, #0
   52f68:	e8bd0070 	pop	{r4, r5, r6}
   52f6c:	e12fff1e 	bx	lr
   52f70:	e1816401 	orr	r6, r1, r1, lsl #8
   52f74:	e1a03000 	mov	r3, r0
   52f78:	e1866806 	orr	r6, r6, r6, lsl #16
   52f7c:	e5935000 	ldr	r5, [r3]
   52f80:	e59f4044 	ldr	r4, [pc, #68]	; 52fcc <memchr+0x10c>
   52f84:	e0265005 	eor	r5, r6, r5
   52f88:	e0854004 	add	r4, r5, r4
   52f8c:	e59f203c 	ldr	r2, [pc, #60]	; 52fd0 <memchr+0x110>
   52f90:	e1c44005 	bic	r4, r4, r5
   52f94:	e0042002 	and	r2, r4, r2
   52f98:	e3520000 	cmp	r2, #0
   52f9c:	e1a00003 	mov	r0, r3
   52fa0:	e2833004 	add	r3, r3, #4
   52fa4:	1affffdd 	bne	52f20 <memchr+0x60>
   52fa8:	e24cc004 	sub	ip, ip, #4
   52fac:	e35c0003 	cmp	ip, #3
   52fb0:	e1a00003 	mov	r0, r3
   52fb4:	8afffff0 	bhi	52f7c <memchr+0xbc>
   52fb8:	eaffffd8 	b	52f20 <memchr+0x60>
   52fbc:	e1a0c002 	mov	ip, r2
   52fc0:	eaffffd4 	b	52f18 <memchr+0x58>
   52fc4:	e1a0000c 	mov	r0, ip
   52fc8:	eaffffe6 	b	52f68 <memchr+0xa8>
   52fcc:	fefefeff 	.word	0xfefefeff
   52fd0:	80808080 	.word	0x80808080

00052fd4 <memmove>:
   52fd4:	e1500001 	cmp	r0, r1
   52fd8:	e92d00f0 	push	{r4, r5, r6, r7}
   52fdc:	9a00000e 	bls	5301c <memmove+0x48>
   52fe0:	e081c002 	add	ip, r1, r2
   52fe4:	e150000c 	cmp	r0, ip
   52fe8:	2a00000b 	bcs	5301c <memmove+0x48>
   52fec:	e3520000 	cmp	r2, #0
   52ff0:	e0803002 	add	r3, r0, r2
   52ff4:	e2422001 	sub	r2, r2, #1
   52ff8:	0a000005 	beq	53014 <memmove+0x40>
   52ffc:	e1a0100c 	mov	r1, ip
   53000:	e2422001 	sub	r2, r2, #1
   53004:	e571c001 	ldrb	ip, [r1, #-1]!
   53008:	e3720001 	cmn	r2, #1
   5300c:	e563c001 	strb	ip, [r3, #-1]!
   53010:	1afffffa 	bne	53000 <memmove+0x2c>
   53014:	e8bd00f0 	pop	{r4, r5, r6, r7}
   53018:	e12fff1e 	bx	lr
   5301c:	e352000f 	cmp	r2, #15
   53020:	8a000009 	bhi	5304c <memmove+0x78>
   53024:	e1a03000 	mov	r3, r0
   53028:	e3520000 	cmp	r2, #0
   5302c:	0afffff8 	beq	53014 <memmove+0x40>
   53030:	e0832002 	add	r2, r3, r2
   53034:	e4d1c001 	ldrb	ip, [r1], #1
   53038:	e4c3c001 	strb	ip, [r3], #1
   5303c:	e1530002 	cmp	r3, r2
   53040:	1afffffb 	bne	53034 <memmove+0x60>
   53044:	e8bd00f0 	pop	{r4, r5, r6, r7}
   53048:	e12fff1e 	bx	lr
   5304c:	e1803001 	orr	r3, r0, r1
   53050:	e3130003 	tst	r3, #3
   53054:	1a000027 	bne	530f8 <memmove+0x124>
   53058:	e2426010 	sub	r6, r2, #16
   5305c:	e1a06226 	lsr	r6, r6, #4
   53060:	e0805206 	add	r5, r0, r6, lsl #4
   53064:	e2855010 	add	r5, r5, #16
   53068:	e1a0c001 	mov	ip, r1
   5306c:	e1a03000 	mov	r3, r0
   53070:	e59c4000 	ldr	r4, [ip]
   53074:	e5834000 	str	r4, [r3]
   53078:	e59c4004 	ldr	r4, [ip, #4]
   5307c:	e5834004 	str	r4, [r3, #4]
   53080:	e59c4008 	ldr	r4, [ip, #8]
   53084:	e5834008 	str	r4, [r3, #8]
   53088:	e59c400c 	ldr	r4, [ip, #12]
   5308c:	e2833010 	add	r3, r3, #16
   53090:	e5034004 	str	r4, [r3, #-4]
   53094:	e1530005 	cmp	r3, r5
   53098:	e28cc010 	add	ip, ip, #16
   5309c:	1afffff3 	bne	53070 <memmove+0x9c>
   530a0:	e2863001 	add	r3, r6, #1
   530a4:	e202700f 	and	r7, r2, #15
   530a8:	e1a03203 	lsl	r3, r3, #4
   530ac:	e3570003 	cmp	r7, #3
   530b0:	e0811003 	add	r1, r1, r3
   530b4:	e0803003 	add	r3, r0, r3
   530b8:	9a000010 	bls	53100 <memmove+0x12c>
   530bc:	e1a05001 	mov	r5, r1
   530c0:	e1a04003 	mov	r4, r3
   530c4:	e1a0c007 	mov	ip, r7
   530c8:	e24cc004 	sub	ip, ip, #4
   530cc:	e4956004 	ldr	r6, [r5], #4
   530d0:	e35c0003 	cmp	ip, #3
   530d4:	e4846004 	str	r6, [r4], #4
   530d8:	8afffffa 	bhi	530c8 <memmove+0xf4>
   530dc:	e247c004 	sub	ip, r7, #4
   530e0:	e3ccc003 	bic	ip, ip, #3
   530e4:	e28cc004 	add	ip, ip, #4
   530e8:	e083300c 	add	r3, r3, ip
   530ec:	e081100c 	add	r1, r1, ip
   530f0:	e2022003 	and	r2, r2, #3
   530f4:	eaffffcb 	b	53028 <memmove+0x54>
   530f8:	e1a03000 	mov	r3, r0
   530fc:	eaffffcb 	b	53030 <memmove+0x5c>
   53100:	e1a02007 	mov	r2, r7
   53104:	eaffffc7 	b	53028 <memmove+0x54>

00053108 <_realloc_r>:
   53108:	e92d40f8 	push	{r3, r4, r5, r6, r7, lr}
   5310c:	e2515000 	subs	r5, r1, #0
   53110:	e1a04002 	mov	r4, r2
   53114:	e1a06000 	mov	r6, r0
   53118:	0a000019 	beq	53184 <_realloc_r+0x7c>
   5311c:	e3520000 	cmp	r2, #0
   53120:	0a000014 	beq	53178 <_realloc_r+0x70>
   53124:	eb0001ac 	bl	537dc <_malloc_usable_size_r>
   53128:	e1540000 	cmp	r4, r0
   5312c:	91a00005 	movls	r0, r5
   53130:	8a000001 	bhi	5313c <_realloc_r+0x34>
   53134:	e8bd40f8 	pop	{r3, r4, r5, r6, r7, lr}
   53138:	e12fff1e 	bx	lr
   5313c:	e1a00006 	mov	r0, r6
   53140:	e1a01004 	mov	r1, r4
   53144:	ebfffa60 	bl	51acc <_malloc_r>
   53148:	e2507000 	subs	r7, r0, #0
   5314c:	01a00007 	moveq	r0, r7
   53150:	0afffff7 	beq	53134 <_realloc_r+0x2c>
   53154:	e1a02004 	mov	r2, r4
   53158:	e1a01005 	mov	r1, r5
   5315c:	ebfff9a1 	bl	517e8 <memcpy>
   53160:	e1a00006 	mov	r0, r6
   53164:	e1a01005 	mov	r1, r5
   53168:	ebfffa17 	bl	519cc <_free_r>
   5316c:	e1a00007 	mov	r0, r7
   53170:	e8bd40f8 	pop	{r3, r4, r5, r6, r7, lr}
   53174:	e12fff1e 	bx	lr
   53178:	ebfffa13 	bl	519cc <_free_r>
   5317c:	e1a00004 	mov	r0, r4
   53180:	eaffffeb 	b	53134 <_realloc_r+0x2c>
   53184:	e1a01002 	mov	r1, r2
   53188:	ebfffa4f 	bl	51acc <_malloc_r>
   5318c:	eaffffe8 	b	53134 <_realloc_r+0x2c>

00053190 <_printf_common>:
   53190:	e92d47f0 	push	{r4, r5, r6, r7, r8, r9, sl, lr}
   53194:	e591c008 	ldr	ip, [r1, #8]
   53198:	e1a04001 	mov	r4, r1
   5319c:	e5911010 	ldr	r1, [r1, #16]
   531a0:	e1a0a002 	mov	sl, r2
   531a4:	e15c0001 	cmp	ip, r1
   531a8:	a1a0200c 	movge	r2, ip
   531ac:	b1a02001 	movlt	r2, r1
   531b0:	e58a2000 	str	r2, [sl]
   531b4:	e5d41043 	ldrb	r1, [r4, #67]	; 0x43
   531b8:	e3510000 	cmp	r1, #0
   531bc:	12822001 	addne	r2, r2, #1
   531c0:	158a2000 	strne	r2, [sl]
   531c4:	e5942000 	ldr	r2, [r4]
   531c8:	e3120020 	tst	r2, #32
   531cc:	e1a07003 	mov	r7, r3
   531d0:	159a3000 	ldrne	r3, [sl]
   531d4:	12833002 	addne	r3, r3, #2
   531d8:	158a3000 	strne	r3, [sl]
   531dc:	15942000 	ldrne	r2, [r4]
   531e0:	e2125006 	ands	r5, r2, #6
   531e4:	e1a06000 	mov	r6, r0
   531e8:	e59d8020 	ldr	r8, [sp, #32]
   531ec:	1a000018 	bne	53254 <_printf_common+0xc4>
   531f0:	e594100c 	ldr	r1, [r4, #12]
   531f4:	e59a3000 	ldr	r3, [sl]
   531f8:	e0633001 	rsb	r3, r3, r1
   531fc:	e3530000 	cmp	r3, #0
   53200:	da000013 	ble	53254 <_printf_common+0xc4>
   53204:	e2849019 	add	r9, r4, #25
   53208:	ea000004 	b	53220 <_printf_common+0x90>
   5320c:	e594200c 	ldr	r2, [r4, #12]
   53210:	e59a3000 	ldr	r3, [sl]
   53214:	e0633002 	rsb	r3, r3, r2
   53218:	e1530005 	cmp	r3, r5
   5321c:	da00000b 	ble	53250 <_printf_common+0xc0>
   53220:	e1a00006 	mov	r0, r6
   53224:	e1a01007 	mov	r1, r7
   53228:	e1a02009 	mov	r2, r9
   5322c:	e3a03001 	mov	r3, #1
   53230:	e1a0e00f 	mov	lr, pc
   53234:	e12fff18 	bx	r8
   53238:	e3700001 	cmn	r0, #1
   5323c:	e2855001 	add	r5, r5, #1
   53240:	1afffff1 	bne	5320c <_printf_common+0x7c>
   53244:	e3e00000 	mvn	r0, #0
   53248:	e8bd47f0 	pop	{r4, r5, r6, r7, r8, r9, sl, lr}
   5324c:	e12fff1e 	bx	lr
   53250:	e5942000 	ldr	r2, [r4]
   53254:	e5d43043 	ldrb	r3, [r4, #67]	; 0x43
   53258:	e2933000 	adds	r3, r3, #0
   5325c:	13a03001 	movne	r3, #1
   53260:	e3120020 	tst	r2, #32
   53264:	1a000024 	bne	532fc <_printf_common+0x16c>
   53268:	e1a00006 	mov	r0, r6
   5326c:	e1a01007 	mov	r1, r7
   53270:	e2842043 	add	r2, r4, #67	; 0x43
   53274:	e1a0e00f 	mov	lr, pc
   53278:	e12fff18 	bx	r8
   5327c:	e3700001 	cmn	r0, #1
   53280:	0affffef 	beq	53244 <_printf_common+0xb4>
   53284:	e5943000 	ldr	r3, [r4]
   53288:	e2033006 	and	r3, r3, #6
   5328c:	e594500c 	ldr	r5, [r4, #12]
   53290:	e3530004 	cmp	r3, #4
   53294:	e59a3000 	ldr	r3, [sl]
   53298:	e5942008 	ldr	r2, [r4, #8]
   5329c:	00635005 	rsbeq	r5, r3, r5
   532a0:	e5943010 	ldr	r3, [r4, #16]
   532a4:	01c55fc5 	biceq	r5, r5, r5, asr #31
   532a8:	13a05000 	movne	r5, #0
   532ac:	e1520003 	cmp	r2, r3
   532b0:	c0633002 	rsbgt	r3, r3, r2
   532b4:	c0855003 	addgt	r5, r5, r3
   532b8:	e3550000 	cmp	r5, #0
   532bc:	c284901a 	addgt	r9, r4, #26
   532c0:	c3a04000 	movgt	r4, #0
   532c4:	ca000002 	bgt	532d4 <_printf_common+0x144>
   532c8:	ea000014 	b	53320 <_printf_common+0x190>
   532cc:	e1540005 	cmp	r4, r5
   532d0:	0a000012 	beq	53320 <_printf_common+0x190>
   532d4:	e1a00006 	mov	r0, r6
   532d8:	e1a01007 	mov	r1, r7
   532dc:	e1a02009 	mov	r2, r9
   532e0:	e3a03001 	mov	r3, #1
   532e4:	e1a0e00f 	mov	lr, pc
   532e8:	e12fff18 	bx	r8
   532ec:	e3700001 	cmn	r0, #1
   532f0:	e2844001 	add	r4, r4, #1
   532f4:	1afffff4 	bne	532cc <_printf_common+0x13c>
   532f8:	eaffffd1 	b	53244 <_printf_common+0xb4>
   532fc:	e0842003 	add	r2, r4, r3
   53300:	e3a01030 	mov	r1, #48	; 0x30
   53304:	e5c21043 	strb	r1, [r2, #67]	; 0x43
   53308:	e2832001 	add	r2, r3, #1
   5330c:	e5d41045 	ldrb	r1, [r4, #69]	; 0x45
   53310:	e0842002 	add	r2, r4, r2
   53314:	e5c21043 	strb	r1, [r2, #67]	; 0x43
   53318:	e2833002 	add	r3, r3, #2
   5331c:	eaffffd1 	b	53268 <_printf_common+0xd8>
   53320:	e3a00000 	mov	r0, #0
   53324:	e8bd47f0 	pop	{r4, r5, r6, r7, r8, r9, sl, lr}
   53328:	e12fff1e 	bx	lr

0005332c <_printf_i>:
   5332c:	e92d4ff0 	push	{r4, r5, r6, r7, r8, r9, sl, fp, lr}
   53330:	e1a04001 	mov	r4, r1
   53334:	e5d11018 	ldrb	r1, [r1, #24]
   53338:	e24dd01c 	sub	sp, sp, #28
   5333c:	e1a08002 	mov	r8, r2
   53340:	e351006e 	cmp	r1, #110	; 0x6e
   53344:	e2842043 	add	r2, r4, #67	; 0x43
   53348:	e58d200c 	str	r2, [sp, #12]
   5334c:	e1a07000 	mov	r7, r0
   53350:	e1a09003 	mov	r9, r3
   53354:	e59d2040 	ldr	r2, [sp, #64]	; 0x40
   53358:	0a00004b 	beq	5348c <_printf_i+0x160>
   5335c:	8a00000b 	bhi	53390 <_printf_i+0x64>
   53360:	e3510063 	cmp	r1, #99	; 0x63
   53364:	0a0000d6 	beq	536c4 <_printf_i+0x398>
   53368:	8a00009c 	bhi	535e0 <_printf_i+0x2b4>
   5336c:	e3510000 	cmp	r1, #0
   53370:	0a000050 	beq	534b8 <_printf_i+0x18c>
   53374:	e3510058 	cmp	r1, #88	; 0x58
   53378:	1a0000ac 	bne	53630 <_printf_i+0x304>
   5337c:	e59f33d4 	ldr	r3, [pc, #980]	; 53758 <_printf_i+0x42c>
   53380:	e5c41045 	strb	r1, [r4, #69]	; 0x45
   53384:	e58d3008 	str	r3, [sp, #8]
   53388:	e5941000 	ldr	r1, [r4]
   5338c:	ea00000d 	b	533c8 <_printf_i+0x9c>
   53390:	e3510073 	cmp	r1, #115	; 0x73
   53394:	0a0000ac 	beq	5364c <_printf_i+0x320>
   53398:	8a00007c 	bhi	53590 <_printf_i+0x264>
   5339c:	e351006f 	cmp	r1, #111	; 0x6f
   533a0:	0a0000b7 	beq	53684 <_printf_i+0x358>
   533a4:	e3510070 	cmp	r1, #112	; 0x70
   533a8:	1a0000a0 	bne	53630 <_printf_i+0x304>
   533ac:	e5941000 	ldr	r1, [r4]
   533b0:	e3811020 	orr	r1, r1, #32
   533b4:	e5841000 	str	r1, [r4]
   533b8:	e3a03078 	mov	r3, #120	; 0x78
   533bc:	e5c43045 	strb	r3, [r4, #69]	; 0x45
   533c0:	e59f3394 	ldr	r3, [pc, #916]	; 5375c <_printf_i+0x430>
   533c4:	e58d3008 	str	r3, [sp, #8]
   533c8:	e5923000 	ldr	r3, [r2]
   533cc:	e3110080 	tst	r1, #128	; 0x80
   533d0:	e2830004 	add	r0, r3, #4
   533d4:	e5820000 	str	r0, [r2]
   533d8:	1a000072 	bne	535a8 <_printf_i+0x27c>
   533dc:	e3110040 	tst	r1, #64	; 0x40
   533e0:	0a000070 	beq	535a8 <_printf_i+0x27c>
   533e4:	e1d3b0b0 	ldrh	fp, [r3]
   533e8:	e3110001 	tst	r1, #1
   533ec:	13811020 	orrne	r1, r1, #32
   533f0:	15841000 	strne	r1, [r4]
   533f4:	e35b0000 	cmp	fp, #0
   533f8:	05942000 	ldreq	r2, [r4]
   533fc:	03c22020 	biceq	r2, r2, #32
   53400:	05842000 	streq	r2, [r4]
   53404:	e3a06010 	mov	r6, #16
   53408:	e3a02000 	mov	r2, #0
   5340c:	e5c42043 	strb	r2, [r4, #67]	; 0x43
   53410:	e5942004 	ldr	r2, [r4, #4]
   53414:	e3520000 	cmp	r2, #0
   53418:	e5842008 	str	r2, [r4, #8]
   5341c:	ba0000ca 	blt	5374c <_printf_i+0x420>
   53420:	e5941000 	ldr	r1, [r4]
   53424:	e35b0000 	cmp	fp, #0
   53428:	e3c11004 	bic	r1, r1, #4
   5342c:	e5841000 	str	r1, [r4]
   53430:	1a000002 	bne	53440 <_printf_i+0x114>
   53434:	e3520000 	cmp	r2, #0
   53438:	0a000066 	beq	535d8 <_printf_i+0x2ac>
   5343c:	e3a0b000 	mov	fp, #0
   53440:	e2845042 	add	r5, r4, #66	; 0x42
   53444:	e1a0000b 	mov	r0, fp
   53448:	e1a01006 	mov	r1, r6
   5344c:	fa0000ee 	blx	5380c <__aeabi_uidivmod>
   53450:	e59d3008 	ldr	r3, [sp, #8]
   53454:	e7d32001 	ldrb	r2, [r3, r1]
   53458:	e1a0000b 	mov	r0, fp
   5345c:	e1a0a005 	mov	sl, r5
   53460:	e1a01006 	mov	r1, r6
   53464:	e4452001 	strb	r2, [r5], #-1
   53468:	fa0000e2 	blx	537f8 <__aeabi_uidiv>
   5346c:	e250b000 	subs	fp, r0, #0
   53470:	1afffff3 	bne	53444 <_printf_i+0x118>
   53474:	e3560008 	cmp	r6, #8
   53478:	0a00004c 	beq	535b0 <_printf_i+0x284>
   5347c:	e59d200c 	ldr	r2, [sp, #12]
   53480:	e06a3002 	rsb	r3, sl, r2
   53484:	e5843010 	str	r3, [r4, #16]
   53488:	ea00000d 	b	534c4 <_printf_i+0x198>
   5348c:	e5943000 	ldr	r3, [r4]
   53490:	e3130080 	tst	r3, #128	; 0x80
   53494:	1a000093 	bne	536e8 <_printf_i+0x3bc>
   53498:	e3130040 	tst	r3, #64	; 0x40
   5349c:	0a000091 	beq	536e8 <_printf_i+0x3bc>
   534a0:	e5923000 	ldr	r3, [r2]
   534a4:	e2831004 	add	r1, r3, #4
   534a8:	e5821000 	str	r1, [r2]
   534ac:	e5942014 	ldr	r2, [r4, #20]
   534b0:	e5933000 	ldr	r3, [r3]
   534b4:	e1c320b0 	strh	r2, [r3]
   534b8:	e3a03000 	mov	r3, #0
   534bc:	e59da00c 	ldr	sl, [sp, #12]
   534c0:	e5843010 	str	r3, [r4, #16]
   534c4:	e58d9000 	str	r9, [sp]
   534c8:	e1a00007 	mov	r0, r7
   534cc:	e1a01004 	mov	r1, r4
   534d0:	e28d2014 	add	r2, sp, #20
   534d4:	e1a03008 	mov	r3, r8
   534d8:	ebffff2c 	bl	53190 <_printf_common>
   534dc:	e3700001 	cmn	r0, #1
   534e0:	0a000020 	beq	53568 <_printf_i+0x23c>
   534e4:	e1a0200a 	mov	r2, sl
   534e8:	e1a00007 	mov	r0, r7
   534ec:	e1a01008 	mov	r1, r8
   534f0:	e5943010 	ldr	r3, [r4, #16]
   534f4:	e1a0e00f 	mov	lr, pc
   534f8:	e12fff19 	bx	r9
   534fc:	e3700001 	cmn	r0, #1
   53500:	0a000018 	beq	53568 <_printf_i+0x23c>
   53504:	e5943000 	ldr	r3, [r4]
   53508:	e3130002 	tst	r3, #2
   5350c:	e59d1014 	ldr	r1, [sp, #20]
   53510:	e594300c 	ldr	r3, [r4, #12]
   53514:	0a000017 	beq	53578 <_printf_i+0x24c>
   53518:	e0612003 	rsb	r2, r1, r3
   5351c:	e3520000 	cmp	r2, #0
   53520:	da000014 	ble	53578 <_printf_i+0x24c>
   53524:	e2846019 	add	r6, r4, #25
   53528:	e3a05000 	mov	r5, #0
   5352c:	ea000004 	b	53544 <_printf_i+0x218>
   53530:	e594300c 	ldr	r3, [r4, #12]
   53534:	e59d1014 	ldr	r1, [sp, #20]
   53538:	e0612003 	rsb	r2, r1, r3
   5353c:	e1520005 	cmp	r2, r5
   53540:	da00000c 	ble	53578 <_printf_i+0x24c>
   53544:	e1a00007 	mov	r0, r7
   53548:	e1a01008 	mov	r1, r8
   5354c:	e1a02006 	mov	r2, r6
   53550:	e3a03001 	mov	r3, #1
   53554:	e1a0e00f 	mov	lr, pc
   53558:	e12fff19 	bx	r9
   5355c:	e3700001 	cmn	r0, #1
   53560:	e2855001 	add	r5, r5, #1
   53564:	1afffff1 	bne	53530 <_printf_i+0x204>
   53568:	e3e00000 	mvn	r0, #0
   5356c:	e28dd01c 	add	sp, sp, #28
   53570:	e8bd4ff0 	pop	{r4, r5, r6, r7, r8, r9, sl, fp, lr}
   53574:	e12fff1e 	bx	lr
   53578:	e1530001 	cmp	r3, r1
   5357c:	a1a00003 	movge	r0, r3
   53580:	b1a00001 	movlt	r0, r1
   53584:	e28dd01c 	add	sp, sp, #28
   53588:	e8bd4ff0 	pop	{r4, r5, r6, r7, r8, r9, sl, fp, lr}
   5358c:	e12fff1e 	bx	lr
   53590:	e3510075 	cmp	r1, #117	; 0x75
   53594:	0a00003a 	beq	53684 <_printf_i+0x358>
   53598:	e3510078 	cmp	r1, #120	; 0x78
   5359c:	1a000023 	bne	53630 <_printf_i+0x304>
   535a0:	e5941000 	ldr	r1, [r4]
   535a4:	eaffff83 	b	533b8 <_printf_i+0x8c>
   535a8:	e593b000 	ldr	fp, [r3]
   535ac:	eaffff8d 	b	533e8 <_printf_i+0xbc>
   535b0:	e5943000 	ldr	r3, [r4]
   535b4:	e3130001 	tst	r3, #1
   535b8:	0affffaf 	beq	5347c <_printf_i+0x150>
   535bc:	e5943010 	ldr	r3, [r4, #16]
   535c0:	e5942004 	ldr	r2, [r4, #4]
   535c4:	e1520003 	cmp	r2, r3
   535c8:	d3a03030 	movle	r3, #48	; 0x30
   535cc:	d54a3001 	strble	r3, [sl, #-1]
   535d0:	d24aa001 	suble	sl, sl, #1
   535d4:	eaffffa8 	b	5347c <_printf_i+0x150>
   535d8:	e59da00c 	ldr	sl, [sp, #12]
   535dc:	eaffffa4 	b	53474 <_printf_i+0x148>
   535e0:	e3510064 	cmp	r1, #100	; 0x64
   535e4:	0a000001 	beq	535f0 <_printf_i+0x2c4>
   535e8:	e3510069 	cmp	r1, #105	; 0x69
   535ec:	1a00000f 	bne	53630 <_printf_i+0x304>
   535f0:	e5943000 	ldr	r3, [r4]
   535f4:	e3130080 	tst	r3, #128	; 0x80
   535f8:	1a000001 	bne	53604 <_printf_i+0x2d8>
   535fc:	e3130040 	tst	r3, #64	; 0x40
   53600:	1a000044 	bne	53718 <_printf_i+0x3ec>
   53604:	e5923000 	ldr	r3, [r2]
   53608:	e5931000 	ldr	r1, [r3]
   5360c:	e2833004 	add	r3, r3, #4
   53610:	e5823000 	str	r3, [r2]
   53614:	e1a0b001 	mov	fp, r1
   53618:	e3510000 	cmp	r1, #0
   5361c:	ba000043 	blt	53730 <_printf_i+0x404>
   53620:	e59f2130 	ldr	r2, [pc, #304]	; 53758 <_printf_i+0x42c>
   53624:	e3a0600a 	mov	r6, #10
   53628:	e58d2008 	str	r2, [sp, #8]
   5362c:	eaffff77 	b	53410 <_printf_i+0xe4>
   53630:	e3a03001 	mov	r3, #1
   53634:	e5c41042 	strb	r1, [r4, #66]	; 0x42
   53638:	e5843010 	str	r3, [r4, #16]
   5363c:	e284a042 	add	sl, r4, #66	; 0x42
   53640:	e3a03000 	mov	r3, #0
   53644:	e5c43043 	strb	r3, [r4, #67]	; 0x43
   53648:	eaffff9d 	b	534c4 <_printf_i+0x198>
   5364c:	e5923000 	ldr	r3, [r2]
   53650:	e2831004 	add	r1, r3, #4
   53654:	e5821000 	str	r1, [r2]
   53658:	e593a000 	ldr	sl, [r3]
   5365c:	e3a01000 	mov	r1, #0
   53660:	e1a0000a 	mov	r0, sl
   53664:	e5942004 	ldr	r2, [r4, #4]
   53668:	ebfffe14 	bl	52ec0 <memchr>
   5366c:	e3500000 	cmp	r0, #0
   53670:	05943004 	ldreq	r3, [r4, #4]
   53674:	106a3000 	rsbne	r3, sl, r0
   53678:	15843004 	strne	r3, [r4, #4]
   5367c:	e5843010 	str	r3, [r4, #16]
   53680:	eaffffee 	b	53640 <_printf_i+0x314>
   53684:	e5943000 	ldr	r3, [r4]
   53688:	e3130080 	tst	r3, #128	; 0x80
   5368c:	1a000001 	bne	53698 <_printf_i+0x36c>
   53690:	e3130040 	tst	r3, #64	; 0x40
   53694:	1a00001a 	bne	53704 <_printf_i+0x3d8>
   53698:	e5923000 	ldr	r3, [r2]
   5369c:	e2831004 	add	r1, r3, #4
   536a0:	e5821000 	str	r1, [r2]
   536a4:	e593b000 	ldr	fp, [r3]
   536a8:	e5d46018 	ldrb	r6, [r4, #24]
   536ac:	e59f20a4 	ldr	r2, [pc, #164]	; 53758 <_printf_i+0x42c>
   536b0:	e356006f 	cmp	r6, #111	; 0x6f
   536b4:	e58d2008 	str	r2, [sp, #8]
   536b8:	13a0600a 	movne	r6, #10
   536bc:	03a06008 	moveq	r6, #8
   536c0:	eaffff50 	b	53408 <_printf_i+0xdc>
   536c4:	e5923000 	ldr	r3, [r2]
   536c8:	e5930000 	ldr	r0, [r3]
   536cc:	e3a01001 	mov	r1, #1
   536d0:	e2833004 	add	r3, r3, #4
   536d4:	e5823000 	str	r3, [r2]
   536d8:	e284a042 	add	sl, r4, #66	; 0x42
   536dc:	e5c40042 	strb	r0, [r4, #66]	; 0x42
   536e0:	e5841010 	str	r1, [r4, #16]
   536e4:	eaffffd5 	b	53640 <_printf_i+0x314>
   536e8:	e5923000 	ldr	r3, [r2]
   536ec:	e2831004 	add	r1, r3, #4
   536f0:	e5821000 	str	r1, [r2]
   536f4:	e5942014 	ldr	r2, [r4, #20]
   536f8:	e5933000 	ldr	r3, [r3]
   536fc:	e5832000 	str	r2, [r3]
   53700:	eaffff6c 	b	534b8 <_printf_i+0x18c>
   53704:	e5923000 	ldr	r3, [r2]
   53708:	e2831004 	add	r1, r3, #4
   5370c:	e5821000 	str	r1, [r2]
   53710:	e1d3b0b0 	ldrh	fp, [r3]
   53714:	eaffffe3 	b	536a8 <_printf_i+0x37c>
   53718:	e5923000 	ldr	r3, [r2]
   5371c:	e1d3b0f0 	ldrsh	fp, [r3]
   53720:	e2831004 	add	r1, r3, #4
   53724:	e5821000 	str	r1, [r2]
   53728:	e1a0100b 	mov	r1, fp
   5372c:	eaffffb9 	b	53618 <_printf_i+0x2ec>
   53730:	e59f3020 	ldr	r3, [pc, #32]	; 53758 <_printf_i+0x42c>
   53734:	e3a0202d 	mov	r2, #45	; 0x2d
   53738:	e26bb000 	rsb	fp, fp, #0
   5373c:	e5c42043 	strb	r2, [r4, #67]	; 0x43
   53740:	e58d3008 	str	r3, [sp, #8]
   53744:	e3a0600a 	mov	r6, #10
   53748:	eaffff30 	b	53410 <_printf_i+0xe4>
   5374c:	e35b0000 	cmp	fp, #0
   53750:	1affff3a 	bne	53440 <_printf_i+0x114>
   53754:	eaffff38 	b	5343c <_printf_i+0x110>
   53758:	00054894 	.word	0x00054894
   5375c:	000548a8 	.word	0x000548a8

00053760 <_fstat_r>:
   53760:	e92d4038 	push	{r3, r4, r5, lr}
   53764:	e59f4030 	ldr	r4, [pc, #48]	; 5379c <_fstat_r+0x3c>
   53768:	e3a03000 	mov	r3, #0
   5376c:	e1a05000 	mov	r5, r0
   53770:	e1a00001 	mov	r0, r1
   53774:	e1a01002 	mov	r1, r2
   53778:	e5843000 	str	r3, [r4]
   5377c:	fafff283 	blx	50190 <_fstat>
   53780:	e3700001 	cmn	r0, #1
   53784:	1a000002 	bne	53794 <_fstat_r+0x34>
   53788:	e5943000 	ldr	r3, [r4]
   5378c:	e3530000 	cmp	r3, #0
   53790:	15853000 	strne	r3, [r5]
   53794:	e8bd4038 	pop	{r3, r4, r5, lr}
   53798:	e12fff1e 	bx	lr
   5379c:	200054e4 	.word	0x200054e4

000537a0 <_isatty_r>:
   537a0:	e92d4038 	push	{r3, r4, r5, lr}
   537a4:	e59f402c 	ldr	r4, [pc, #44]	; 537d8 <_isatty_r+0x38>
   537a8:	e3a03000 	mov	r3, #0
   537ac:	e1a05000 	mov	r5, r0
   537b0:	e1a00001 	mov	r0, r1
   537b4:	e5843000 	str	r3, [r4]
   537b8:	fafff25f 	blx	5013c <_isatty>
   537bc:	e3700001 	cmn	r0, #1
   537c0:	1a000002 	bne	537d0 <_isatty_r+0x30>
   537c4:	e5943000 	ldr	r3, [r4]
   537c8:	e3530000 	cmp	r3, #0
   537cc:	15853000 	strne	r3, [r5]
   537d0:	e8bd4038 	pop	{r3, r4, r5, lr}
   537d4:	e12fff1e 	bx	lr
   537d8:	200054e4 	.word	0x200054e4

000537dc <_malloc_usable_size_r>:
   537dc:	e5110004 	ldr	r0, [r1, #-4]
   537e0:	e3500000 	cmp	r0, #0
   537e4:	b2411004 	sublt	r1, r1, #4
   537e8:	b7913000 	ldrlt	r3, [r1, r0]
   537ec:	b0800003 	addlt	r0, r0, r3
   537f0:	e2400004 	sub	r0, r0, #4
   537f4:	e12fff1e 	bx	lr

000537f8 <__aeabi_uidiv>:
   537f8:	2900      	cmp	r1, #0
   537fa:	d002      	beq.n	53802 <__aeabi_uidiv+0xa>
   537fc:	fbb0 f0f1 	udiv	r0, r0, r1
   53800:	4770      	bx	lr
   53802:	b108      	cbz	r0, 53808 <__aeabi_uidiv+0x10>
   53804:	f04f 30ff 	mov.w	r0, #4294967295
   53808:	f000 b81e 	b.w	53848 <__aeabi_idiv0>

0005380c <__aeabi_uidivmod>:
   5380c:	2900      	cmp	r1, #0
   5380e:	d0f8      	beq.n	53802 <__aeabi_uidiv+0xa>
   53810:	4602      	mov	r2, r0
   53812:	fbb0 f0f1 	udiv	r0, r0, r1
   53816:	fb00 2111 	mls	r1, r0, r1, r2
   5381a:	4770      	bx	lr

0005381c <__aeabi_idiv>:
   5381c:	2900      	cmp	r1, #0
   5381e:	d002      	beq.n	53826 <__aeabi_idiv+0xa>
   53820:	fb90 f0f1 	sdiv	r0, r0, r1
   53824:	4770      	bx	lr
   53826:	2800      	cmp	r0, #0
   53828:	bfc8      	it	gt
   5382a:	f06f 4000 	mvngt.w	r0, #2147483648	; 0x80000000
   5382e:	bfb8      	it	lt
   53830:	f04f 4000 	movlt.w	r0, #2147483648	; 0x80000000
   53834:	f000 b808 	b.w	53848 <__aeabi_idiv0>

00053838 <__aeabi_idivmod>:
   53838:	2900      	cmp	r1, #0
   5383a:	d0f4      	beq.n	53826 <__aeabi_idiv+0xa>
   5383c:	4602      	mov	r2, r0
   5383e:	fb90 f0f1 	sdiv	r0, r0, r1
   53842:	fb00 2111 	mls	r1, r0, r1, r2
   53846:	4770      	bx	lr

00053848 <__aeabi_idiv0>:
   53848:	4770      	bx	lr
   5384a:	bf00      	nop

0005384c <selfrel_offset31>:
   5384c:	6803      	ldr	r3, [r0, #0]
   5384e:	005a      	lsls	r2, r3, #1
   53850:	bf4c      	ite	mi
   53852:	f043 4300 	orrmi.w	r3, r3, #2147483648	; 0x80000000
   53856:	f023 4300 	bicpl.w	r3, r3, #2147483648	; 0x80000000
   5385a:	4418      	add	r0, r3
   5385c:	4770      	bx	lr
   5385e:	bf00      	nop

00053860 <search_EIT_table>:
   53860:	e92d 4ff0 	stmdb	sp!, {r4, r5, r6, r7, r8, r9, sl, fp, lr}
   53864:	b083      	sub	sp, #12
   53866:	b399      	cbz	r1, 538d0 <search_EIT_table+0x70>
   53868:	1e4b      	subs	r3, r1, #1
   5386a:	4617      	mov	r7, r2
   5386c:	4605      	mov	r5, r0
   5386e:	9301      	str	r3, [sp, #4]
   53870:	4698      	mov	r8, r3
   53872:	2600      	movs	r6, #0
   53874:	eb06 0408 	add.w	r4, r6, r8
   53878:	eb04 74d4 	add.w	r4, r4, r4, lsr #31
   5387c:	1064      	asrs	r4, r4, #1
   5387e:	ea4f 0ac4 	mov.w	sl, r4, lsl #3
   53882:	eb05 0b0a 	add.w	fp, r5, sl
   53886:	4658      	mov	r0, fp
   53888:	f7ff ffe0 	bl	5384c <selfrel_offset31>
   5388c:	9b01      	ldr	r3, [sp, #4]
   5388e:	4681      	mov	r9, r0
   53890:	42a3      	cmp	r3, r4
   53892:	f10a 0008 	add.w	r0, sl, #8
   53896:	4428      	add	r0, r5
   53898:	d00e      	beq.n	538b8 <search_EIT_table+0x58>
   5389a:	f7ff ffd7 	bl	5384c <selfrel_offset31>
   5389e:	45b9      	cmp	r9, r7
   538a0:	f100 30ff 	add.w	r0, r0, #4294967295
   538a4:	d904      	bls.n	538b0 <search_EIT_table+0x50>
   538a6:	42b4      	cmp	r4, r6
   538a8:	d00c      	beq.n	538c4 <search_EIT_table+0x64>
   538aa:	f104 38ff 	add.w	r8, r4, #4294967295
   538ae:	e7e1      	b.n	53874 <search_EIT_table+0x14>
   538b0:	42b8      	cmp	r0, r7
   538b2:	d203      	bcs.n	538bc <search_EIT_table+0x5c>
   538b4:	1c66      	adds	r6, r4, #1
   538b6:	e7dd      	b.n	53874 <search_EIT_table+0x14>
   538b8:	45b9      	cmp	r9, r7
   538ba:	d8f4      	bhi.n	538a6 <search_EIT_table+0x46>
   538bc:	4658      	mov	r0, fp
   538be:	b003      	add	sp, #12
   538c0:	e8bd 8ff0 	ldmia.w	sp!, {r4, r5, r6, r7, r8, r9, sl, fp, pc}
   538c4:	f04f 0b00 	mov.w	fp, #0
   538c8:	4658      	mov	r0, fp
   538ca:	b003      	add	sp, #12
   538cc:	e8bd 8ff0 	ldmia.w	sp!, {r4, r5, r6, r7, r8, r9, sl, fp, pc}
   538d0:	468b      	mov	fp, r1
   538d2:	4658      	mov	r0, fp
   538d4:	b003      	add	sp, #12
   538d6:	e8bd 8ff0 	ldmia.w	sp!, {r4, r5, r6, r7, r8, r9, sl, fp, pc}
   538da:	bf00      	nop

000538dc <__gnu_unwind_get_pr_addr>:
   538dc:	2801      	cmp	r0, #1
   538de:	d007      	beq.n	538f0 <__gnu_unwind_get_pr_addr+0x14>
   538e0:	2802      	cmp	r0, #2
   538e2:	d007      	beq.n	538f4 <__gnu_unwind_get_pr_addr+0x18>
   538e4:	4b04      	ldr	r3, [pc, #16]	; (538f8 <__gnu_unwind_get_pr_addr+0x1c>)
   538e6:	2800      	cmp	r0, #0
   538e8:	bf0c      	ite	eq
   538ea:	4618      	moveq	r0, r3
   538ec:	2000      	movne	r0, #0
   538ee:	4770      	bx	lr
   538f0:	4802      	ldr	r0, [pc, #8]	; (538fc <__gnu_unwind_get_pr_addr+0x20>)
   538f2:	4770      	bx	lr
   538f4:	4802      	ldr	r0, [pc, #8]	; (53900 <__gnu_unwind_get_pr_addr+0x24>)
   538f6:	4770      	bx	lr
   538f8:	00053fe9 	.word	0x00053fe9
   538fc:	00053fed 	.word	0x00053fed
   53900:	00053ff1 	.word	0x00053ff1

00053904 <get_eit_entry>:
   53904:	b530      	push	{r4, r5, lr}
   53906:	4b24      	ldr	r3, [pc, #144]	; (53998 <get_eit_entry+0x94>)
   53908:	b083      	sub	sp, #12
   5390a:	4604      	mov	r4, r0
   5390c:	1e8d      	subs	r5, r1, #2
   5390e:	b37b      	cbz	r3, 53970 <get_eit_entry+0x6c>
   53910:	4628      	mov	r0, r5
   53912:	a901      	add	r1, sp, #4
   53914:	f3af 8000 	nop.w
   53918:	b320      	cbz	r0, 53964 <get_eit_entry+0x60>
   5391a:	9901      	ldr	r1, [sp, #4]
   5391c:	462a      	mov	r2, r5
   5391e:	f7ff ff9f 	bl	53860 <search_EIT_table>
   53922:	4605      	mov	r5, r0
   53924:	b1f0      	cbz	r0, 53964 <get_eit_entry+0x60>
   53926:	f7ff ff91 	bl	5384c <selfrel_offset31>
   5392a:	686b      	ldr	r3, [r5, #4]
   5392c:	64a0      	str	r0, [r4, #72]	; 0x48
   5392e:	2b01      	cmp	r3, #1
   53930:	d012      	beq.n	53958 <get_eit_entry+0x54>
   53932:	2b00      	cmp	r3, #0
   53934:	f105 0004 	add.w	r0, r5, #4
   53938:	db20      	blt.n	5397c <get_eit_entry+0x78>
   5393a:	f7ff ff87 	bl	5384c <selfrel_offset31>
   5393e:	2300      	movs	r3, #0
   53940:	64e0      	str	r0, [r4, #76]	; 0x4c
   53942:	6523      	str	r3, [r4, #80]	; 0x50
   53944:	6803      	ldr	r3, [r0, #0]
   53946:	2b00      	cmp	r3, #0
   53948:	db1c      	blt.n	53984 <get_eit_entry+0x80>
   5394a:	f7ff ff7f 	bl	5384c <selfrel_offset31>
   5394e:	2300      	movs	r3, #0
   53950:	6120      	str	r0, [r4, #16]
   53952:	4618      	mov	r0, r3
   53954:	b003      	add	sp, #12
   53956:	bd30      	pop	{r4, r5, pc}
   53958:	2300      	movs	r3, #0
   5395a:	6123      	str	r3, [r4, #16]
   5395c:	2305      	movs	r3, #5
   5395e:	4618      	mov	r0, r3
   53960:	b003      	add	sp, #12
   53962:	bd30      	pop	{r4, r5, pc}
   53964:	2300      	movs	r3, #0
   53966:	6123      	str	r3, [r4, #16]
   53968:	2309      	movs	r3, #9
   5396a:	4618      	mov	r0, r3
   5396c:	b003      	add	sp, #12
   5396e:	bd30      	pop	{r4, r5, pc}
   53970:	490a      	ldr	r1, [pc, #40]	; (5399c <get_eit_entry+0x98>)
   53972:	480b      	ldr	r0, [pc, #44]	; (539a0 <get_eit_entry+0x9c>)
   53974:	1a09      	subs	r1, r1, r0
   53976:	10c9      	asrs	r1, r1, #3
   53978:	9101      	str	r1, [sp, #4]
   5397a:	e7cf      	b.n	5391c <get_eit_entry+0x18>
   5397c:	2301      	movs	r3, #1
   5397e:	64e0      	str	r0, [r4, #76]	; 0x4c
   53980:	6523      	str	r3, [r4, #80]	; 0x50
   53982:	e7df      	b.n	53944 <get_eit_entry+0x40>
   53984:	f3c3 6003 	ubfx	r0, r3, #24, #4
   53988:	f7ff ffa8 	bl	538dc <__gnu_unwind_get_pr_addr>
   5398c:	2800      	cmp	r0, #0
   5398e:	6120      	str	r0, [r4, #16]
   53990:	bf0c      	ite	eq
   53992:	2309      	moveq	r3, #9
   53994:	2300      	movne	r3, #0
   53996:	e7dc      	b.n	53952 <get_eit_entry+0x4e>
   53998:	00000000 	.word	0x00000000
   5399c:	000549b8 	.word	0x000549b8
   539a0:	000548e0 	.word	0x000548e0

000539a4 <restore_non_core_regs>:
   539a4:	6803      	ldr	r3, [r0, #0]
   539a6:	07da      	lsls	r2, r3, #31
   539a8:	b510      	push	{r4, lr}
   539aa:	4604      	mov	r4, r0
   539ac:	d406      	bmi.n	539bc <restore_non_core_regs+0x18>
   539ae:	079b      	lsls	r3, r3, #30
   539b0:	f100 0048 	add.w	r0, r0, #72	; 0x48
   539b4:	d509      	bpl.n	539ca <restore_non_core_regs+0x26>
   539b6:	f000 fc85 	bl	542c4 <__gnu_Unwind_Restore_VFP_D>
   539ba:	6823      	ldr	r3, [r4, #0]
   539bc:	0759      	lsls	r1, r3, #29
   539be:	d509      	bpl.n	539d4 <restore_non_core_regs+0x30>
   539c0:	071a      	lsls	r2, r3, #28
   539c2:	d50e      	bpl.n	539e2 <restore_non_core_regs+0x3e>
   539c4:	06db      	lsls	r3, r3, #27
   539c6:	d513      	bpl.n	539f0 <restore_non_core_regs+0x4c>
   539c8:	bd10      	pop	{r4, pc}
   539ca:	f000 fc73 	bl	542b4 <__gnu_Unwind_Restore_VFP>
   539ce:	6823      	ldr	r3, [r4, #0]
   539d0:	0759      	lsls	r1, r3, #29
   539d2:	d4f5      	bmi.n	539c0 <restore_non_core_regs+0x1c>
   539d4:	f104 00d0 	add.w	r0, r4, #208	; 0xd0
   539d8:	f000 fc7c 	bl	542d4 <__gnu_Unwind_Restore_VFP_D_16_to_31>
   539dc:	6823      	ldr	r3, [r4, #0]
   539de:	071a      	lsls	r2, r3, #28
   539e0:	d4f0      	bmi.n	539c4 <restore_non_core_regs+0x20>
   539e2:	f504 70a8 	add.w	r0, r4, #336	; 0x150
   539e6:	f000 fc7d 	bl	542e4 <__gnu_Unwind_Restore_WMMXD>
   539ea:	6823      	ldr	r3, [r4, #0]
   539ec:	06db      	lsls	r3, r3, #27
   539ee:	d4eb      	bmi.n	539c8 <restore_non_core_regs+0x24>
   539f0:	f504 70e8 	add.w	r0, r4, #464	; 0x1d0
   539f4:	e8bd 4010 	ldmia.w	sp!, {r4, lr}
   539f8:	f000 bcb8 	b.w	5436c <__gnu_Unwind_Restore_WMMXC>

000539fc <_Unwind_decode_typeinfo_ptr.isra.0>:
   539fc:	6803      	ldr	r3, [r0, #0]
   539fe:	b10b      	cbz	r3, 53a04 <_Unwind_decode_typeinfo_ptr.isra.0+0x8>
   53a00:	4418      	add	r0, r3
   53a02:	4770      	bx	lr
   53a04:	4618      	mov	r0, r3
   53a06:	4770      	bx	lr

00053a08 <__gnu_unwind_24bit.isra.1>:
   53a08:	2009      	movs	r0, #9
   53a0a:	4770      	bx	lr

00053a0c <_Unwind_DebugHook>:
   53a0c:	4770      	bx	lr
   53a0e:	bf00      	nop

00053a10 <unwind_phase2>:
   53a10:	b570      	push	{r4, r5, r6, lr}
   53a12:	4604      	mov	r4, r0
   53a14:	460d      	mov	r5, r1
   53a16:	e008      	b.n	53a2a <unwind_phase2+0x1a>
   53a18:	6c2b      	ldr	r3, [r5, #64]	; 0x40
   53a1a:	6163      	str	r3, [r4, #20]
   53a1c:	2001      	movs	r0, #1
   53a1e:	6923      	ldr	r3, [r4, #16]
   53a20:	4621      	mov	r1, r4
   53a22:	462a      	mov	r2, r5
   53a24:	4798      	blx	r3
   53a26:	2808      	cmp	r0, #8
   53a28:	d108      	bne.n	53a3c <unwind_phase2+0x2c>
   53a2a:	4620      	mov	r0, r4
   53a2c:	6c29      	ldr	r1, [r5, #64]	; 0x40
   53a2e:	f7ff ff69 	bl	53904 <get_eit_entry>
   53a32:	4606      	mov	r6, r0
   53a34:	2800      	cmp	r0, #0
   53a36:	d0ef      	beq.n	53a18 <unwind_phase2+0x8>
   53a38:	f7fc fbde 	bl	501f8 <abort>
   53a3c:	2807      	cmp	r0, #7
   53a3e:	d1fb      	bne.n	53a38 <unwind_phase2+0x28>
   53a40:	4630      	mov	r0, r6
   53a42:	6c29      	ldr	r1, [r5, #64]	; 0x40
   53a44:	f7ff ffe2 	bl	53a0c <_Unwind_DebugHook>
   53a48:	1d28      	adds	r0, r5, #4
   53a4a:	f000 fc27 	bl	5429c <__restore_core_regs>
   53a4e:	bf00      	nop

00053a50 <unwind_phase2_forced>:
   53a50:	e92d 47f0 	stmdb	sp!, {r4, r5, r6, r7, r8, r9, sl, lr}
   53a54:	1d0c      	adds	r4, r1, #4
   53a56:	4606      	mov	r6, r0
   53a58:	4617      	mov	r7, r2
   53a5a:	cc0f      	ldmia	r4!, {r0, r1, r2, r3}
   53a5c:	f5ad 7d72 	sub.w	sp, sp, #968	; 0x3c8
   53a60:	ad03      	add	r5, sp, #12
   53a62:	c50f      	stmia	r5!, {r0, r1, r2, r3}
   53a64:	cc0f      	ldmia	r4!, {r0, r1, r2, r3}
   53a66:	c50f      	stmia	r5!, {r0, r1, r2, r3}
   53a68:	cc0f      	ldmia	r4!, {r0, r1, r2, r3}
   53a6a:	c50f      	stmia	r5!, {r0, r1, r2, r3}
   53a6c:	e894 000f 	ldmia.w	r4, {r0, r1, r2, r3}
   53a70:	ac02      	add	r4, sp, #8
   53a72:	f04f 0e00 	mov.w	lr, #0
   53a76:	f8d6 800c 	ldr.w	r8, [r6, #12]
   53a7a:	f8d6 9018 	ldr.w	r9, [r6, #24]
   53a7e:	e885 000f 	stmia.w	r5, {r0, r1, r2, r3}
   53a82:	4630      	mov	r0, r6
   53a84:	6c21      	ldr	r1, [r4, #64]	; 0x40
   53a86:	f8c4 e000 	str.w	lr, [r4]
   53a8a:	f7ff ff3b 	bl	53904 <get_eit_entry>
   53a8e:	2f00      	cmp	r7, #0
   53a90:	4605      	mov	r5, r0
   53a92:	bf0c      	ite	eq
   53a94:	2709      	moveq	r7, #9
   53a96:	270a      	movne	r7, #10
   53a98:	b17d      	cbz	r5, 53aba <unwind_phase2_forced+0x6a>
   53a9a:	6ba3      	ldr	r3, [r4, #56]	; 0x38
   53a9c:	f047 0110 	orr.w	r1, r7, #16
   53aa0:	e88d 0210 	stmia.w	sp, {r4, r9}
   53aa4:	2001      	movs	r0, #1
   53aa6:	6463      	str	r3, [r4, #68]	; 0x44
   53aa8:	4632      	mov	r2, r6
   53aaa:	4633      	mov	r3, r6
   53aac:	47c0      	blx	r8
   53aae:	bb78      	cbnz	r0, 53b10 <unwind_phase2_forced+0xc0>
   53ab0:	4628      	mov	r0, r5
   53ab2:	f50d 7d72 	add.w	sp, sp, #968	; 0x3c8
   53ab6:	e8bd 87f0 	ldmia.w	sp!, {r4, r5, r6, r7, r8, r9, sl, pc}
   53aba:	6c23      	ldr	r3, [r4, #64]	; 0x40
   53abc:	6173      	str	r3, [r6, #20]
   53abe:	4621      	mov	r1, r4
   53ac0:	f44f 72f0 	mov.w	r2, #480	; 0x1e0
   53ac4:	a87a      	add	r0, sp, #488	; 0x1e8
   53ac6:	f7fd fe8f 	bl	517e8 <memcpy>
   53aca:	6933      	ldr	r3, [r6, #16]
   53acc:	4631      	mov	r1, r6
   53ace:	aa7a      	add	r2, sp, #488	; 0x1e8
   53ad0:	4638      	mov	r0, r7
   53ad2:	4798      	blx	r3
   53ad4:	9b88      	ldr	r3, [sp, #544]	; 0x220
   53ad6:	4682      	mov	sl, r0
   53ad8:	e88d 0210 	stmia.w	sp, {r4, r9}
   53adc:	4639      	mov	r1, r7
   53ade:	6463      	str	r3, [r4, #68]	; 0x44
   53ae0:	2001      	movs	r0, #1
   53ae2:	4632      	mov	r2, r6
   53ae4:	4633      	mov	r3, r6
   53ae6:	47c0      	blx	r8
   53ae8:	b990      	cbnz	r0, 53b10 <unwind_phase2_forced+0xc0>
   53aea:	4620      	mov	r0, r4
   53aec:	a97a      	add	r1, sp, #488	; 0x1e8
   53aee:	f44f 72f0 	mov.w	r2, #480	; 0x1e0
   53af2:	f7fd fe79 	bl	517e8 <memcpy>
   53af6:	f1ba 0f08 	cmp.w	sl, #8
   53afa:	d106      	bne.n	53b0a <unwind_phase2_forced+0xba>
   53afc:	4630      	mov	r0, r6
   53afe:	6c21      	ldr	r1, [r4, #64]	; 0x40
   53b00:	f7ff ff00 	bl	53904 <get_eit_entry>
   53b04:	2709      	movs	r7, #9
   53b06:	4605      	mov	r5, r0
   53b08:	e7c6      	b.n	53a98 <unwind_phase2_forced+0x48>
   53b0a:	f1ba 0f07 	cmp.w	sl, #7
   53b0e:	d004      	beq.n	53b1a <unwind_phase2_forced+0xca>
   53b10:	2009      	movs	r0, #9
   53b12:	f50d 7d72 	add.w	sp, sp, #968	; 0x3c8
   53b16:	e8bd 87f0 	ldmia.w	sp!, {r4, r5, r6, r7, r8, r9, sl, pc}
   53b1a:	4628      	mov	r0, r5
   53b1c:	6c21      	ldr	r1, [r4, #64]	; 0x40
   53b1e:	f7ff ff75 	bl	53a0c <_Unwind_DebugHook>
   53b22:	a803      	add	r0, sp, #12
   53b24:	f000 fbba 	bl	5429c <__restore_core_regs>

00053b28 <_Unwind_GetCFA>:
   53b28:	6c40      	ldr	r0, [r0, #68]	; 0x44
   53b2a:	4770      	bx	lr

00053b2c <__gnu_Unwind_RaiseException>:
   53b2c:	b5f0      	push	{r4, r5, r6, r7, lr}
   53b2e:	6bcb      	ldr	r3, [r1, #60]	; 0x3c
   53b30:	640b      	str	r3, [r1, #64]	; 0x40
   53b32:	1d0e      	adds	r6, r1, #4
   53b34:	460f      	mov	r7, r1
   53b36:	4604      	mov	r4, r0
   53b38:	ce0f      	ldmia	r6!, {r0, r1, r2, r3}
   53b3a:	b0f9      	sub	sp, #484	; 0x1e4
   53b3c:	ad01      	add	r5, sp, #4
   53b3e:	c50f      	stmia	r5!, {r0, r1, r2, r3}
   53b40:	ce0f      	ldmia	r6!, {r0, r1, r2, r3}
   53b42:	c50f      	stmia	r5!, {r0, r1, r2, r3}
   53b44:	ce0f      	ldmia	r6!, {r0, r1, r2, r3}
   53b46:	c50f      	stmia	r5!, {r0, r1, r2, r3}
   53b48:	e896 000f 	ldmia.w	r6, {r0, r1, r2, r3}
   53b4c:	f04f 36ff 	mov.w	r6, #4294967295
   53b50:	e885 000f 	stmia.w	r5, {r0, r1, r2, r3}
   53b54:	9600      	str	r6, [sp, #0]
   53b56:	e006      	b.n	53b66 <__gnu_Unwind_RaiseException+0x3a>
   53b58:	6923      	ldr	r3, [r4, #16]
   53b5a:	4621      	mov	r1, r4
   53b5c:	466a      	mov	r2, sp
   53b5e:	4798      	blx	r3
   53b60:	2808      	cmp	r0, #8
   53b62:	4605      	mov	r5, r0
   53b64:	d108      	bne.n	53b78 <__gnu_Unwind_RaiseException+0x4c>
   53b66:	4620      	mov	r0, r4
   53b68:	9910      	ldr	r1, [sp, #64]	; 0x40
   53b6a:	f7ff fecb 	bl	53904 <get_eit_entry>
   53b6e:	2800      	cmp	r0, #0
   53b70:	d0f2      	beq.n	53b58 <__gnu_Unwind_RaiseException+0x2c>
   53b72:	2009      	movs	r0, #9
   53b74:	b079      	add	sp, #484	; 0x1e4
   53b76:	bdf0      	pop	{r4, r5, r6, r7, pc}
   53b78:	4668      	mov	r0, sp
   53b7a:	f7ff ff13 	bl	539a4 <restore_non_core_regs>
   53b7e:	2d06      	cmp	r5, #6
   53b80:	d1f7      	bne.n	53b72 <__gnu_Unwind_RaiseException+0x46>
   53b82:	4620      	mov	r0, r4
   53b84:	4639      	mov	r1, r7
   53b86:	f7ff ff43 	bl	53a10 <unwind_phase2>
   53b8a:	bf00      	nop

00053b8c <__gnu_Unwind_ForcedUnwind>:
   53b8c:	b430      	push	{r4, r5}
   53b8e:	6bdd      	ldr	r5, [r3, #60]	; 0x3c
   53b90:	60c1      	str	r1, [r0, #12]
   53b92:	6182      	str	r2, [r0, #24]
   53b94:	4619      	mov	r1, r3
   53b96:	641d      	str	r5, [r3, #64]	; 0x40
   53b98:	2200      	movs	r2, #0
   53b9a:	bc30      	pop	{r4, r5}
   53b9c:	e758      	b.n	53a50 <unwind_phase2_forced>
   53b9e:	bf00      	nop

00053ba0 <__gnu_Unwind_Resume>:
   53ba0:	b570      	push	{r4, r5, r6, lr}
   53ba2:	68c6      	ldr	r6, [r0, #12]
   53ba4:	6943      	ldr	r3, [r0, #20]
   53ba6:	640b      	str	r3, [r1, #64]	; 0x40
   53ba8:	4604      	mov	r4, r0
   53baa:	460d      	mov	r5, r1
   53bac:	b126      	cbz	r6, 53bb8 <__gnu_Unwind_Resume+0x18>
   53bae:	2201      	movs	r2, #1
   53bb0:	f7ff ff4e 	bl	53a50 <unwind_phase2_forced>
   53bb4:	f7fc fb20 	bl	501f8 <abort>
   53bb8:	6903      	ldr	r3, [r0, #16]
   53bba:	4621      	mov	r1, r4
   53bbc:	2002      	movs	r0, #2
   53bbe:	462a      	mov	r2, r5
   53bc0:	4798      	blx	r3
   53bc2:	2807      	cmp	r0, #7
   53bc4:	d007      	beq.n	53bd6 <__gnu_Unwind_Resume+0x36>
   53bc6:	2808      	cmp	r0, #8
   53bc8:	d103      	bne.n	53bd2 <__gnu_Unwind_Resume+0x32>
   53bca:	4620      	mov	r0, r4
   53bcc:	4629      	mov	r1, r5
   53bce:	f7ff ff1f 	bl	53a10 <unwind_phase2>
   53bd2:	f7fc fb11 	bl	501f8 <abort>
   53bd6:	4630      	mov	r0, r6
   53bd8:	6c29      	ldr	r1, [r5, #64]	; 0x40
   53bda:	f7ff ff17 	bl	53a0c <_Unwind_DebugHook>
   53bde:	1d28      	adds	r0, r5, #4
   53be0:	f000 fb5c 	bl	5429c <__restore_core_regs>

00053be4 <__gnu_Unwind_Resume_or_Rethrow>:
   53be4:	68c2      	ldr	r2, [r0, #12]
   53be6:	b11a      	cbz	r2, 53bf0 <__gnu_Unwind_Resume_or_Rethrow+0xc>
   53be8:	6bca      	ldr	r2, [r1, #60]	; 0x3c
   53bea:	640a      	str	r2, [r1, #64]	; 0x40
   53bec:	2200      	movs	r2, #0
   53bee:	e72f      	b.n	53a50 <unwind_phase2_forced>
   53bf0:	e79c      	b.n	53b2c <__gnu_Unwind_RaiseException>
   53bf2:	bf00      	nop

00053bf4 <_Unwind_Complete>:
   53bf4:	4770      	bx	lr
   53bf6:	bf00      	nop

00053bf8 <_Unwind_DeleteException>:
   53bf8:	6883      	ldr	r3, [r0, #8]
   53bfa:	b113      	cbz	r3, 53c02 <_Unwind_DeleteException+0xa>
   53bfc:	4601      	mov	r1, r0
   53bfe:	2001      	movs	r0, #1
   53c00:	4718      	bx	r3
   53c02:	4770      	bx	lr

00053c04 <_Unwind_VRS_Get>:
   53c04:	b500      	push	{lr}
   53c06:	2904      	cmp	r1, #4
   53c08:	d807      	bhi.n	53c1a <_Unwind_VRS_Get+0x16>
   53c0a:	e8df f001 	tbb	[pc, r1]
   53c0e:	0903      	.short	0x0903
   53c10:	0906      	.short	0x0906
   53c12:	09          	.byte	0x09
   53c13:	00          	.byte	0x00
   53c14:	b90b      	cbnz	r3, 53c1a <_Unwind_VRS_Get+0x16>
   53c16:	2a0f      	cmp	r2, #15
   53c18:	d905      	bls.n	53c26 <_Unwind_VRS_Get+0x22>
   53c1a:	2002      	movs	r0, #2
   53c1c:	f85d fb04 	ldr.w	pc, [sp], #4
   53c20:	2001      	movs	r0, #1
   53c22:	f85d fb04 	ldr.w	pc, [sp], #4
   53c26:	eb00 0282 	add.w	r2, r0, r2, lsl #2
   53c2a:	4618      	mov	r0, r3
   53c2c:	6853      	ldr	r3, [r2, #4]
   53c2e:	9a01      	ldr	r2, [sp, #4]
   53c30:	6013      	str	r3, [r2, #0]
   53c32:	f85d fb04 	ldr.w	pc, [sp], #4
   53c36:	bf00      	nop

00053c38 <_Unwind_GetGR>:
   53c38:	b500      	push	{lr}
   53c3a:	b085      	sub	sp, #20
   53c3c:	460a      	mov	r2, r1
   53c3e:	ab03      	add	r3, sp, #12
   53c40:	2100      	movs	r1, #0
   53c42:	9300      	str	r3, [sp, #0]
   53c44:	460b      	mov	r3, r1
   53c46:	f7ff ffdd 	bl	53c04 <_Unwind_VRS_Get>
   53c4a:	9803      	ldr	r0, [sp, #12]
   53c4c:	b005      	add	sp, #20
   53c4e:	f85d fb04 	ldr.w	pc, [sp], #4
   53c52:	bf00      	nop

00053c54 <_Unwind_VRS_Set>:
   53c54:	b500      	push	{lr}
   53c56:	2904      	cmp	r1, #4
   53c58:	d807      	bhi.n	53c6a <_Unwind_VRS_Set+0x16>
   53c5a:	e8df f001 	tbb	[pc, r1]
   53c5e:	0903      	.short	0x0903
   53c60:	0906      	.short	0x0906
   53c62:	09          	.byte	0x09
   53c63:	00          	.byte	0x00
   53c64:	b90b      	cbnz	r3, 53c6a <_Unwind_VRS_Set+0x16>
   53c66:	2a0f      	cmp	r2, #15
   53c68:	d905      	bls.n	53c76 <_Unwind_VRS_Set+0x22>
   53c6a:	2002      	movs	r0, #2
   53c6c:	f85d fb04 	ldr.w	pc, [sp], #4
   53c70:	2001      	movs	r0, #1
   53c72:	f85d fb04 	ldr.w	pc, [sp], #4
   53c76:	9901      	ldr	r1, [sp, #4]
   53c78:	eb00 0282 	add.w	r2, r0, r2, lsl #2
   53c7c:	6809      	ldr	r1, [r1, #0]
   53c7e:	6051      	str	r1, [r2, #4]
   53c80:	4618      	mov	r0, r3
   53c82:	f85d fb04 	ldr.w	pc, [sp], #4
   53c86:	bf00      	nop

00053c88 <_Unwind_SetGR>:
   53c88:	b510      	push	{r4, lr}
   53c8a:	b084      	sub	sp, #16
   53c8c:	ab04      	add	r3, sp, #16
   53c8e:	460c      	mov	r4, r1
   53c90:	f843 2d04 	str.w	r2, [r3, #-4]!
   53c94:	2100      	movs	r1, #0
   53c96:	9300      	str	r3, [sp, #0]
   53c98:	4622      	mov	r2, r4
   53c9a:	460b      	mov	r3, r1
   53c9c:	f7ff ffda 	bl	53c54 <_Unwind_VRS_Set>
   53ca0:	b004      	add	sp, #16
   53ca2:	bd10      	pop	{r4, pc}

00053ca4 <__gnu_Unwind_Backtrace>:
   53ca4:	b5f0      	push	{r4, r5, r6, r7, lr}
   53ca6:	6bd3      	ldr	r3, [r2, #60]	; 0x3c
   53ca8:	6413      	str	r3, [r2, #64]	; 0x40
   53caa:	1d15      	adds	r5, r2, #4
   53cac:	4607      	mov	r7, r0
   53cae:	460e      	mov	r6, r1
   53cb0:	cd0f      	ldmia	r5!, {r0, r1, r2, r3}
   53cb2:	f5ad 7d0f 	sub.w	sp, sp, #572	; 0x23c
   53cb6:	ac17      	add	r4, sp, #92	; 0x5c
   53cb8:	c40f      	stmia	r4!, {r0, r1, r2, r3}
   53cba:	cd0f      	ldmia	r5!, {r0, r1, r2, r3}
   53cbc:	c40f      	stmia	r4!, {r0, r1, r2, r3}
   53cbe:	cd0f      	ldmia	r5!, {r0, r1, r2, r3}
   53cc0:	c40f      	stmia	r4!, {r0, r1, r2, r3}
   53cc2:	e895 000f 	ldmia.w	r5, {r0, r1, r2, r3}
   53cc6:	f04f 35ff 	mov.w	r5, #4294967295
   53cca:	e884 000f 	stmia.w	r4, {r0, r1, r2, r3}
   53cce:	9516      	str	r5, [sp, #88]	; 0x58
   53cd0:	e010      	b.n	53cf4 <__gnu_Unwind_Backtrace+0x50>
   53cd2:	a816      	add	r0, sp, #88	; 0x58
   53cd4:	f7ff ffd8 	bl	53c88 <_Unwind_SetGR>
   53cd8:	4631      	mov	r1, r6
   53cda:	a816      	add	r0, sp, #88	; 0x58
   53cdc:	47b8      	blx	r7
   53cde:	4669      	mov	r1, sp
   53ce0:	aa16      	add	r2, sp, #88	; 0x58
   53ce2:	b978      	cbnz	r0, 53d04 <__gnu_Unwind_Backtrace+0x60>
   53ce4:	9b04      	ldr	r3, [sp, #16]
   53ce6:	2008      	movs	r0, #8
   53ce8:	4798      	blx	r3
   53cea:	2805      	cmp	r0, #5
   53cec:	4604      	mov	r4, r0
   53cee:	d00a      	beq.n	53d06 <__gnu_Unwind_Backtrace+0x62>
   53cf0:	2809      	cmp	r0, #9
   53cf2:	d007      	beq.n	53d04 <__gnu_Unwind_Backtrace+0x60>
   53cf4:	9926      	ldr	r1, [sp, #152]	; 0x98
   53cf6:	4668      	mov	r0, sp
   53cf8:	f7ff fe04 	bl	53904 <get_eit_entry>
   53cfc:	466a      	mov	r2, sp
   53cfe:	210c      	movs	r1, #12
   53d00:	2800      	cmp	r0, #0
   53d02:	d0e6      	beq.n	53cd2 <__gnu_Unwind_Backtrace+0x2e>
   53d04:	2409      	movs	r4, #9
   53d06:	a816      	add	r0, sp, #88	; 0x58
   53d08:	f7ff fe4c 	bl	539a4 <restore_non_core_regs>
   53d0c:	4620      	mov	r0, r4
   53d0e:	f50d 7d0f 	add.w	sp, sp, #572	; 0x23c
   53d12:	bdf0      	pop	{r4, r5, r6, r7, pc}

00053d14 <__gnu_unwind_pr_common>:
   53d14:	e92d 4ff0 	stmdb	sp!, {r4, r5, r6, r7, r8, r9, sl, fp, lr}
   53d18:	460d      	mov	r5, r1
   53d1a:	6cc9      	ldr	r1, [r1, #76]	; 0x4c
   53d1c:	b08b      	sub	sp, #44	; 0x2c
   53d1e:	1d0c      	adds	r4, r1, #4
   53d20:	6809      	ldr	r1, [r1, #0]
   53d22:	9107      	str	r1, [sp, #28]
   53d24:	4690      	mov	r8, r2
   53d26:	9408      	str	r4, [sp, #32]
   53d28:	f000 0903 	and.w	r9, r0, #3
   53d2c:	461e      	mov	r6, r3
   53d2e:	2b00      	cmp	r3, #0
   53d30:	d164      	bne.n	53dfc <__gnu_unwind_pr_common+0xe8>
   53d32:	0209      	lsls	r1, r1, #8
   53d34:	2303      	movs	r3, #3
   53d36:	9107      	str	r1, [sp, #28]
   53d38:	f88d 6025 	strb.w	r6, [sp, #37]	; 0x25
   53d3c:	f88d 3024 	strb.w	r3, [sp, #36]	; 0x24
   53d40:	6d2b      	ldr	r3, [r5, #80]	; 0x50
   53d42:	f1b9 0f02 	cmp.w	r9, #2
   53d46:	bf08      	it	eq
   53d48:	6bac      	ldreq	r4, [r5, #56]	; 0x38
   53d4a:	f013 0301 	ands.w	r3, r3, #1
   53d4e:	d143      	bne.n	53dd8 <__gnu_unwind_pr_common+0xc4>
   53d50:	f000 0008 	and.w	r0, r0, #8
   53d54:	b2c2      	uxtb	r2, r0
   53d56:	9203      	str	r2, [sp, #12]
   53d58:	9301      	str	r3, [sp, #4]
   53d5a:	6827      	ldr	r7, [r4, #0]
   53d5c:	2f00      	cmp	r7, #0
   53d5e:	d03d      	beq.n	53ddc <__gnu_unwind_pr_common+0xc8>
   53d60:	2e02      	cmp	r6, #2
   53d62:	d047      	beq.n	53df4 <__gnu_unwind_pr_common+0xe0>
   53d64:	8827      	ldrh	r7, [r4, #0]
   53d66:	f8b4 a002 	ldrh.w	sl, [r4, #2]
   53d6a:	3404      	adds	r4, #4
   53d6c:	6cab      	ldr	r3, [r5, #72]	; 0x48
   53d6e:	f02a 0b01 	bic.w	fp, sl, #1
   53d72:	4640      	mov	r0, r8
   53d74:	210f      	movs	r1, #15
   53d76:	449b      	add	fp, r3
   53d78:	f7ff ff5e 	bl	53c38 <_Unwind_GetGR>
   53d7c:	4583      	cmp	fp, r0
   53d7e:	d837      	bhi.n	53df0 <__gnu_unwind_pr_common+0xdc>
   53d80:	f027 0301 	bic.w	r3, r7, #1
   53d84:	449b      	add	fp, r3
   53d86:	4558      	cmp	r0, fp
   53d88:	bf2c      	ite	cs
   53d8a:	2000      	movcs	r0, #0
   53d8c:	2001      	movcc	r0, #1
   53d8e:	f00a 0a01 	and.w	sl, sl, #1
   53d92:	f007 0701 	and.w	r7, r7, #1
   53d96:	ea47 0a4a 	orr.w	sl, r7, sl, lsl #1
   53d9a:	f1ba 0f01 	cmp.w	sl, #1
   53d9e:	d043      	beq.n	53e28 <__gnu_unwind_pr_common+0x114>
   53da0:	d33a      	bcc.n	53e18 <__gnu_unwind_pr_common+0x104>
   53da2:	f1ba 0f02 	cmp.w	sl, #2
   53da6:	d11f      	bne.n	53de8 <__gnu_unwind_pr_common+0xd4>
   53da8:	6823      	ldr	r3, [r4, #0]
   53daa:	f023 4200 	bic.w	r2, r3, #2147483648	; 0x80000000
   53dae:	9202      	str	r2, [sp, #8]
   53db0:	f1b9 0f00 	cmp.w	r9, #0
   53db4:	d17b      	bne.n	53eae <__gnu_unwind_pr_common+0x19a>
   53db6:	b138      	cbz	r0, 53dc8 <__gnu_unwind_pr_common+0xb4>
   53db8:	9a03      	ldr	r2, [sp, #12]
   53dba:	2a00      	cmp	r2, #0
   53dbc:	f000 8083 	beq.w	53ec6 <__gnu_unwind_pr_common+0x1b2>
   53dc0:	9a02      	ldr	r2, [sp, #8]
   53dc2:	2a00      	cmp	r2, #0
   53dc4:	f000 80a6 	beq.w	53f14 <__gnu_unwind_pr_common+0x200>
   53dc8:	2b00      	cmp	r3, #0
   53dca:	db7a      	blt.n	53ec2 <__gnu_unwind_pr_common+0x1ae>
   53dcc:	9b02      	ldr	r3, [sp, #8]
   53dce:	f103 0a01 	add.w	sl, r3, #1
   53dd2:	eb04 048a 	add.w	r4, r4, sl, lsl #2
   53dd6:	e7c0      	b.n	53d5a <__gnu_unwind_pr_common+0x46>
   53dd8:	2300      	movs	r3, #0
   53dda:	9301      	str	r3, [sp, #4]
   53ddc:	2e02      	cmp	r6, #2
   53dde:	dd40      	ble.n	53e62 <__gnu_unwind_pr_common+0x14e>
   53de0:	f7ff fe12 	bl	53a08 <__gnu_unwind_24bit.isra.1>
   53de4:	2800      	cmp	r0, #0
   53de6:	d042      	beq.n	53e6e <__gnu_unwind_pr_common+0x15a>
   53de8:	2009      	movs	r0, #9
   53dea:	b00b      	add	sp, #44	; 0x2c
   53dec:	e8bd 8ff0 	ldmia.w	sp!, {r4, r5, r6, r7, r8, r9, sl, fp, pc}
   53df0:	2000      	movs	r0, #0
   53df2:	e7cc      	b.n	53d8e <__gnu_unwind_pr_common+0x7a>
   53df4:	f8d4 a004 	ldr.w	sl, [r4, #4]
   53df8:	3408      	adds	r4, #8
   53dfa:	e7b7      	b.n	53d6c <__gnu_unwind_pr_common+0x58>
   53dfc:	2b02      	cmp	r3, #2
   53dfe:	dc9f      	bgt.n	53d40 <__gnu_unwind_pr_common+0x2c>
   53e00:	0c0b      	lsrs	r3, r1, #16
   53e02:	b2df      	uxtb	r7, r3
   53e04:	0409      	lsls	r1, r1, #16
   53e06:	2202      	movs	r2, #2
   53e08:	f88d 3025 	strb.w	r3, [sp, #37]	; 0x25
   53e0c:	eb04 0487 	add.w	r4, r4, r7, lsl #2
   53e10:	9107      	str	r1, [sp, #28]
   53e12:	f88d 2024 	strb.w	r2, [sp, #36]	; 0x24
   53e16:	e793      	b.n	53d40 <__gnu_unwind_pr_common+0x2c>
   53e18:	f1b9 0f00 	cmp.w	r9, #0
   53e1c:	d002      	beq.n	53e24 <__gnu_unwind_pr_common+0x110>
   53e1e:	2800      	cmp	r0, #0
   53e20:	f040 80ad 	bne.w	53f7e <__gnu_unwind_pr_common+0x26a>
   53e24:	3404      	adds	r4, #4
   53e26:	e798      	b.n	53d5a <__gnu_unwind_pr_common+0x46>
   53e28:	f1b9 0f00 	cmp.w	r9, #0
   53e2c:	d126      	bne.n	53e7c <__gnu_unwind_pr_common+0x168>
   53e2e:	b1b0      	cbz	r0, 53e5e <__gnu_unwind_pr_common+0x14a>
   53e30:	e894 000c 	ldmia.w	r4, {r2, r3}
   53e34:	0fd7      	lsrs	r7, r2, #31
   53e36:	1c9a      	adds	r2, r3, #2
   53e38:	d0d6      	beq.n	53de8 <__gnu_unwind_pr_common+0xd4>
   53e3a:	f105 0258 	add.w	r2, r5, #88	; 0x58
   53e3e:	3301      	adds	r3, #1
   53e40:	9206      	str	r2, [sp, #24]
   53e42:	f000 8092 	beq.w	53f6a <__gnu_unwind_pr_common+0x256>
   53e46:	1d20      	adds	r0, r4, #4
   53e48:	f7ff fdd8 	bl	539fc <_Unwind_decode_typeinfo_ptr.isra.0>
   53e4c:	463a      	mov	r2, r7
   53e4e:	4601      	mov	r1, r0
   53e50:	ab06      	add	r3, sp, #24
   53e52:	4628      	mov	r0, r5
   53e54:	f3af 8000 	nop.w
   53e58:	2800      	cmp	r0, #0
   53e5a:	f040 80b5 	bne.w	53fc8 <__gnu_unwind_pr_common+0x2b4>
   53e5e:	3408      	adds	r4, #8
   53e60:	e77b      	b.n	53d5a <__gnu_unwind_pr_common+0x46>
   53e62:	4640      	mov	r0, r8
   53e64:	a907      	add	r1, sp, #28
   53e66:	f000 fb1b 	bl	544a0 <__gnu_unwind_execute>
   53e6a:	2800      	cmp	r0, #0
   53e6c:	d1bc      	bne.n	53de8 <__gnu_unwind_pr_common+0xd4>
   53e6e:	9b01      	ldr	r3, [sp, #4]
   53e70:	2b00      	cmp	r3, #0
   53e72:	d159      	bne.n	53f28 <__gnu_unwind_pr_common+0x214>
   53e74:	2008      	movs	r0, #8
   53e76:	b00b      	add	sp, #44	; 0x2c
   53e78:	e8bd 8ff0 	ldmia.w	sp!, {r4, r5, r6, r7, r8, r9, sl, fp, pc}
   53e7c:	4640      	mov	r0, r8
   53e7e:	210d      	movs	r1, #13
   53e80:	6a2f      	ldr	r7, [r5, #32]
   53e82:	f7ff fed9 	bl	53c38 <_Unwind_GetGR>
   53e86:	4287      	cmp	r7, r0
   53e88:	d1e9      	bne.n	53e5e <__gnu_unwind_pr_common+0x14a>
   53e8a:	6aab      	ldr	r3, [r5, #40]	; 0x28
   53e8c:	429c      	cmp	r4, r3
   53e8e:	d1e6      	bne.n	53e5e <__gnu_unwind_pr_common+0x14a>
   53e90:	4620      	mov	r0, r4
   53e92:	f7ff fcdb 	bl	5384c <selfrel_offset31>
   53e96:	210f      	movs	r1, #15
   53e98:	4602      	mov	r2, r0
   53e9a:	4640      	mov	r0, r8
   53e9c:	f7ff fef4 	bl	53c88 <_Unwind_SetGR>
   53ea0:	4640      	mov	r0, r8
   53ea2:	462a      	mov	r2, r5
   53ea4:	2100      	movs	r1, #0
   53ea6:	f7ff feef 	bl	53c88 <_Unwind_SetGR>
   53eaa:	2007      	movs	r0, #7
   53eac:	e79d      	b.n	53dea <__gnu_unwind_pr_common+0xd6>
   53eae:	4640      	mov	r0, r8
   53eb0:	210d      	movs	r1, #13
   53eb2:	6a2f      	ldr	r7, [r5, #32]
   53eb4:	f7ff fec0 	bl	53c38 <_Unwind_GetGR>
   53eb8:	4287      	cmp	r7, r0
   53eba:	d045      	beq.n	53f48 <__gnu_unwind_pr_common+0x234>
   53ebc:	6823      	ldr	r3, [r4, #0]
   53ebe:	2b00      	cmp	r3, #0
   53ec0:	da84      	bge.n	53dcc <__gnu_unwind_pr_common+0xb8>
   53ec2:	3404      	adds	r4, #4
   53ec4:	e782      	b.n	53dcc <__gnu_unwind_pr_common+0xb8>
   53ec6:	9b02      	ldr	r3, [sp, #8]
   53ec8:	b323      	cbz	r3, 53f14 <__gnu_unwind_pr_common+0x200>
   53eca:	f105 0358 	add.w	r3, r5, #88	; 0x58
   53ece:	9605      	str	r6, [sp, #20]
   53ed0:	f104 0a04 	add.w	sl, r4, #4
   53ed4:	9f03      	ldr	r7, [sp, #12]
   53ed6:	f8dd b008 	ldr.w	fp, [sp, #8]
   53eda:	f8cd 9010 	str.w	r9, [sp, #16]
   53ede:	461e      	mov	r6, r3
   53ee0:	e002      	b.n	53ee8 <__gnu_unwind_pr_common+0x1d4>
   53ee2:	45d9      	cmp	r9, fp
   53ee4:	464f      	mov	r7, r9
   53ee6:	d015      	beq.n	53f14 <__gnu_unwind_pr_common+0x200>
   53ee8:	4650      	mov	r0, sl
   53eea:	9606      	str	r6, [sp, #24]
   53eec:	f7ff fd86 	bl	539fc <_Unwind_decode_typeinfo_ptr.isra.0>
   53ef0:	2200      	movs	r2, #0
   53ef2:	4601      	mov	r1, r0
   53ef4:	ab06      	add	r3, sp, #24
   53ef6:	4628      	mov	r0, r5
   53ef8:	f3af 8000 	nop.w
   53efc:	f107 0901 	add.w	r9, r7, #1
   53f00:	f10a 0a04 	add.w	sl, sl, #4
   53f04:	2800      	cmp	r0, #0
   53f06:	d0ec      	beq.n	53ee2 <__gnu_unwind_pr_common+0x1ce>
   53f08:	9b02      	ldr	r3, [sp, #8]
   53f0a:	f8dd 9010 	ldr.w	r9, [sp, #16]
   53f0e:	9e05      	ldr	r6, [sp, #20]
   53f10:	429f      	cmp	r7, r3
   53f12:	d1d3      	bne.n	53ebc <__gnu_unwind_pr_common+0x1a8>
   53f14:	4640      	mov	r0, r8
   53f16:	210d      	movs	r1, #13
   53f18:	f7ff fe8e 	bl	53c38 <_Unwind_GetGR>
   53f1c:	9b06      	ldr	r3, [sp, #24]
   53f1e:	6228      	str	r0, [r5, #32]
   53f20:	62ac      	str	r4, [r5, #40]	; 0x28
   53f22:	626b      	str	r3, [r5, #36]	; 0x24
   53f24:	2006      	movs	r0, #6
   53f26:	e760      	b.n	53dea <__gnu_unwind_pr_common+0xd6>
   53f28:	210f      	movs	r1, #15
   53f2a:	4640      	mov	r0, r8
   53f2c:	f7ff fe84 	bl	53c38 <_Unwind_GetGR>
   53f30:	210e      	movs	r1, #14
   53f32:	4602      	mov	r2, r0
   53f34:	4640      	mov	r0, r8
   53f36:	f7ff fea7 	bl	53c88 <_Unwind_SetGR>
   53f3a:	4640      	mov	r0, r8
   53f3c:	210f      	movs	r1, #15
   53f3e:	4a29      	ldr	r2, [pc, #164]	; (53fe4 <__gnu_unwind_pr_common+0x2d0>)
   53f40:	f7ff fea2 	bl	53c88 <_Unwind_SetGR>
   53f44:	2007      	movs	r0, #7
   53f46:	e750      	b.n	53dea <__gnu_unwind_pr_common+0xd6>
   53f48:	6aab      	ldr	r3, [r5, #40]	; 0x28
   53f4a:	429c      	cmp	r4, r3
   53f4c:	d1b6      	bne.n	53ebc <__gnu_unwind_pr_common+0x1a8>
   53f4e:	2204      	movs	r2, #4
   53f50:	2700      	movs	r7, #0
   53f52:	18a3      	adds	r3, r4, r2
   53f54:	9902      	ldr	r1, [sp, #8]
   53f56:	62a9      	str	r1, [r5, #40]	; 0x28
   53f58:	62ef      	str	r7, [r5, #44]	; 0x2c
   53f5a:	632a      	str	r2, [r5, #48]	; 0x30
   53f5c:	636b      	str	r3, [r5, #52]	; 0x34
   53f5e:	6823      	ldr	r3, [r4, #0]
   53f60:	42bb      	cmp	r3, r7
   53f62:	db1f      	blt.n	53fa4 <__gnu_unwind_pr_common+0x290>
   53f64:	2301      	movs	r3, #1
   53f66:	9301      	str	r3, [sp, #4]
   53f68:	e730      	b.n	53dcc <__gnu_unwind_pr_common+0xb8>
   53f6a:	4640      	mov	r0, r8
   53f6c:	210d      	movs	r1, #13
   53f6e:	f7ff fe63 	bl	53c38 <_Unwind_GetGR>
   53f72:	6228      	str	r0, [r5, #32]
   53f74:	9b06      	ldr	r3, [sp, #24]
   53f76:	626b      	str	r3, [r5, #36]	; 0x24
   53f78:	62ac      	str	r4, [r5, #40]	; 0x28
   53f7a:	2006      	movs	r0, #6
   53f7c:	e735      	b.n	53dea <__gnu_unwind_pr_common+0xd6>
   53f7e:	4620      	mov	r0, r4
   53f80:	f7ff fc64 	bl	5384c <selfrel_offset31>
   53f84:	3404      	adds	r4, #4
   53f86:	4606      	mov	r6, r0
   53f88:	63ac      	str	r4, [r5, #56]	; 0x38
   53f8a:	4628      	mov	r0, r5
   53f8c:	f3af 8000 	nop.w
   53f90:	2800      	cmp	r0, #0
   53f92:	f43f af29 	beq.w	53de8 <__gnu_unwind_pr_common+0xd4>
   53f96:	4640      	mov	r0, r8
   53f98:	4632      	mov	r2, r6
   53f9a:	210f      	movs	r1, #15
   53f9c:	f7ff fe74 	bl	53c88 <_Unwind_SetGR>
   53fa0:	2007      	movs	r0, #7
   53fa2:	e722      	b.n	53dea <__gnu_unwind_pr_common+0xd6>
   53fa4:	4608      	mov	r0, r1
   53fa6:	3001      	adds	r0, #1
   53fa8:	eb04 0080 	add.w	r0, r4, r0, lsl #2
   53fac:	f7ff fc4e 	bl	5384c <selfrel_offset31>
   53fb0:	210f      	movs	r1, #15
   53fb2:	4602      	mov	r2, r0
   53fb4:	4640      	mov	r0, r8
   53fb6:	f7ff fe67 	bl	53c88 <_Unwind_SetGR>
   53fba:	4640      	mov	r0, r8
   53fbc:	4639      	mov	r1, r7
   53fbe:	462a      	mov	r2, r5
   53fc0:	f7ff fe62 	bl	53c88 <_Unwind_SetGR>
   53fc4:	2007      	movs	r0, #7
   53fc6:	e710      	b.n	53dea <__gnu_unwind_pr_common+0xd6>
   53fc8:	4607      	mov	r7, r0
   53fca:	210d      	movs	r1, #13
   53fcc:	4640      	mov	r0, r8
   53fce:	f7ff fe33 	bl	53c38 <_Unwind_GetGR>
   53fd2:	2f02      	cmp	r7, #2
   53fd4:	6228      	str	r0, [r5, #32]
   53fd6:	d1cd      	bne.n	53f74 <__gnu_unwind_pr_common+0x260>
   53fd8:	462b      	mov	r3, r5
   53fda:	9a06      	ldr	r2, [sp, #24]
   53fdc:	f843 2f2c 	str.w	r2, [r3, #44]!
   53fe0:	626b      	str	r3, [r5, #36]	; 0x24
   53fe2:	e7c9      	b.n	53f78 <__gnu_unwind_pr_common+0x264>
   53fe4:	00000000 	.word	0x00000000

00053fe8 <__aeabi_unwind_cpp_pr0>:
   53fe8:	2300      	movs	r3, #0
   53fea:	e693      	b.n	53d14 <__gnu_unwind_pr_common>

00053fec <__aeabi_unwind_cpp_pr1>:
   53fec:	2301      	movs	r3, #1
   53fee:	e691      	b.n	53d14 <__gnu_unwind_pr_common>

00053ff0 <__aeabi_unwind_cpp_pr2>:
   53ff0:	2302      	movs	r3, #2
   53ff2:	e68f      	b.n	53d14 <__gnu_unwind_pr_common>

00053ff4 <_Unwind_VRS_Pop>:
   53ff4:	b5f0      	push	{r4, r5, r6, r7, lr}
   53ff6:	4605      	mov	r5, r0
   53ff8:	b0c5      	sub	sp, #276	; 0x114
   53ffa:	2904      	cmp	r1, #4
   53ffc:	d80c      	bhi.n	54018 <_Unwind_VRS_Pop+0x24>
   53ffe:	e8df f001 	tbb	[pc, r1]
   54002:	0356      	.short	0x0356
   54004:	300b      	.short	0x300b
   54006:	0e          	.byte	0x0e
   54007:	00          	.byte	0x00
   54008:	2b01      	cmp	r3, #1
   5400a:	ea4f 4412 	mov.w	r4, r2, lsr #16
   5400e:	b296      	uxth	r6, r2
   54010:	d065      	beq.n	540de <_Unwind_VRS_Pop+0xea>
   54012:	2b05      	cmp	r3, #5
   54014:	f000 8084 	beq.w	54120 <_Unwind_VRS_Pop+0x12c>
   54018:	2002      	movs	r0, #2
   5401a:	b045      	add	sp, #276	; 0x114
   5401c:	bdf0      	pop	{r4, r5, r6, r7, pc}
   5401e:	2b00      	cmp	r3, #0
   54020:	d1fa      	bne.n	54018 <_Unwind_VRS_Pop+0x24>
   54022:	2a10      	cmp	r2, #16
   54024:	d8f8      	bhi.n	54018 <_Unwind_VRS_Pop+0x24>
   54026:	682b      	ldr	r3, [r5, #0]
   54028:	06dc      	lsls	r4, r3, #27
   5402a:	f100 80eb 	bmi.w	54204 <_Unwind_VRS_Pop+0x210>
   5402e:	ae22      	add	r6, sp, #136	; 0x88
   54030:	4630      	mov	r0, r6
   54032:	9201      	str	r2, [sp, #4]
   54034:	f000 f9a4 	bl	54380 <__gnu_Unwind_Save_WMMXC>
   54038:	6ba8      	ldr	r0, [r5, #56]	; 0x38
   5403a:	9a01      	ldr	r2, [sp, #4]
   5403c:	2300      	movs	r3, #0
   5403e:	2401      	movs	r4, #1
   54040:	fa04 f103 	lsl.w	r1, r4, r3
   54044:	4211      	tst	r1, r2
   54046:	d003      	beq.n	54050 <_Unwind_VRS_Pop+0x5c>
   54048:	6801      	ldr	r1, [r0, #0]
   5404a:	f846 1023 	str.w	r1, [r6, r3, lsl #2]
   5404e:	3004      	adds	r0, #4
   54050:	3301      	adds	r3, #1
   54052:	2b04      	cmp	r3, #4
   54054:	d1f4      	bne.n	54040 <_Unwind_VRS_Pop+0x4c>
   54056:	63a8      	str	r0, [r5, #56]	; 0x38
   54058:	4630      	mov	r0, r6
   5405a:	f000 f987 	bl	5436c <__gnu_Unwind_Restore_WMMXC>
   5405e:	2000      	movs	r0, #0
   54060:	e7db      	b.n	5401a <_Unwind_VRS_Pop+0x26>
   54062:	2b03      	cmp	r3, #3
   54064:	d1d8      	bne.n	54018 <_Unwind_VRS_Pop+0x24>
   54066:	0c14      	lsrs	r4, r2, #16
   54068:	b297      	uxth	r7, r2
   5406a:	193b      	adds	r3, r7, r4
   5406c:	2b10      	cmp	r3, #16
   5406e:	d8d3      	bhi.n	54018 <_Unwind_VRS_Pop+0x24>
   54070:	682b      	ldr	r3, [r5, #0]
   54072:	071e      	lsls	r6, r3, #28
   54074:	f100 80e6 	bmi.w	54244 <_Unwind_VRS_Pop+0x250>
   54078:	ae22      	add	r6, sp, #136	; 0x88
   5407a:	4630      	mov	r0, r6
   5407c:	007f      	lsls	r7, r7, #1
   5407e:	f000 f953 	bl	54328 <__gnu_Unwind_Save_WMMXD>
   54082:	eb06 02c4 	add.w	r2, r6, r4, lsl #3
   54086:	1e7b      	subs	r3, r7, #1
   54088:	6bac      	ldr	r4, [r5, #56]	; 0x38
   5408a:	b157      	cbz	r7, 540a2 <_Unwind_VRS_Pop+0xae>
   5408c:	3a04      	subs	r2, #4
   5408e:	4621      	mov	r1, r4
   54090:	f851 0b04 	ldr.w	r0, [r1], #4
   54094:	f842 0f04 	str.w	r0, [r2, #4]!
   54098:	3b01      	subs	r3, #1
   5409a:	1c58      	adds	r0, r3, #1
   5409c:	d1f8      	bne.n	54090 <_Unwind_VRS_Pop+0x9c>
   5409e:	eb04 0487 	add.w	r4, r4, r7, lsl #2
   540a2:	4630      	mov	r0, r6
   540a4:	63ac      	str	r4, [r5, #56]	; 0x38
   540a6:	f000 f91d 	bl	542e4 <__gnu_Unwind_Restore_WMMXD>
   540aa:	2000      	movs	r0, #0
   540ac:	e7b5      	b.n	5401a <_Unwind_VRS_Pop+0x26>
   540ae:	2b00      	cmp	r3, #0
   540b0:	d1b2      	bne.n	54018 <_Unwind_VRS_Pop+0x24>
   540b2:	6bac      	ldr	r4, [r5, #56]	; 0x38
   540b4:	b297      	uxth	r7, r2
   540b6:	1d28      	adds	r0, r5, #4
   540b8:	2601      	movs	r6, #1
   540ba:	fa06 f103 	lsl.w	r1, r6, r3
   540be:	4239      	tst	r1, r7
   540c0:	f103 0301 	add.w	r3, r3, #1
   540c4:	d002      	beq.n	540cc <_Unwind_VRS_Pop+0xd8>
   540c6:	6821      	ldr	r1, [r4, #0]
   540c8:	6001      	str	r1, [r0, #0]
   540ca:	3404      	adds	r4, #4
   540cc:	2b10      	cmp	r3, #16
   540ce:	f100 0004 	add.w	r0, r0, #4
   540d2:	d1f2      	bne.n	540ba <_Unwind_VRS_Pop+0xc6>
   540d4:	f412 5000 	ands.w	r0, r2, #8192	; 0x2000
   540d8:	d120      	bne.n	5411c <_Unwind_VRS_Pop+0x128>
   540da:	63ac      	str	r4, [r5, #56]	; 0x38
   540dc:	e79d      	b.n	5401a <_Unwind_VRS_Pop+0x26>
   540de:	1932      	adds	r2, r6, r4
   540e0:	2a10      	cmp	r2, #16
   540e2:	d899      	bhi.n	54018 <_Unwind_VRS_Pop+0x24>
   540e4:	2c0f      	cmp	r4, #15
   540e6:	d897      	bhi.n	54018 <_Unwind_VRS_Pop+0x24>
   540e8:	6829      	ldr	r1, [r5, #0]
   540ea:	07c8      	lsls	r0, r1, #31
   540ec:	f04f 0700 	mov.w	r7, #0
   540f0:	d455      	bmi.n	5419e <_Unwind_VRS_Pop+0x1aa>
   540f2:	a822      	add	r0, sp, #136	; 0x88
   540f4:	9301      	str	r3, [sp, #4]
   540f6:	f000 f8e1 	bl	542bc <__gnu_Unwind_Save_VFP>
   540fa:	9b01      	ldr	r3, [sp, #4]
   540fc:	e019      	b.n	54132 <_Unwind_VRS_Pop+0x13e>
   540fe:	4608      	mov	r0, r1
   54100:	4637      	mov	r7, r6
   54102:	2b01      	cmp	r3, #1
   54104:	f000 8098 	beq.w	54238 <_Unwind_VRS_Pop+0x244>
   54108:	2c0f      	cmp	r4, #15
   5410a:	63a8      	str	r0, [r5, #56]	; 0x38
   5410c:	d802      	bhi.n	54114 <_Unwind_VRS_Pop+0x120>
   5410e:	a822      	add	r0, sp, #136	; 0x88
   54110:	f000 f8d8 	bl	542c4 <__gnu_Unwind_Restore_VFP_D>
   54114:	b117      	cbz	r7, 5411c <_Unwind_VRS_Pop+0x128>
   54116:	a802      	add	r0, sp, #8
   54118:	f000 f8dc 	bl	542d4 <__gnu_Unwind_Restore_VFP_D_16_to_31>
   5411c:	2000      	movs	r0, #0
   5411e:	e77c      	b.n	5401a <_Unwind_VRS_Pop+0x26>
   54120:	1937      	adds	r7, r6, r4
   54122:	2f20      	cmp	r7, #32
   54124:	f63f af78 	bhi.w	54018 <_Unwind_VRS_Pop+0x24>
   54128:	2c0f      	cmp	r4, #15
   5412a:	d930      	bls.n	5418e <_Unwind_VRS_Pop+0x19a>
   5412c:	4637      	mov	r7, r6
   5412e:	2e00      	cmp	r6, #0
   54130:	d145      	bne.n	541be <_Unwind_VRS_Pop+0x1ca>
   54132:	6ba9      	ldr	r1, [r5, #56]	; 0x38
   54134:	4632      	mov	r2, r6
   54136:	2e00      	cmp	r6, #0
   54138:	d0e1      	beq.n	540fe <_Unwind_VRS_Pop+0x10a>
   5413a:	2700      	movs	r7, #0
   5413c:	a844      	add	r0, sp, #272	; 0x110
   5413e:	ea4f 0c42 	mov.w	ip, r2, lsl #1
   54142:	eb00 00c4 	add.w	r0, r0, r4, lsl #3
   54146:	f10c 32ff 	add.w	r2, ip, #4294967295
   5414a:	388c      	subs	r0, #140	; 0x8c
   5414c:	468e      	mov	lr, r1
   5414e:	f85e 6b04 	ldr.w	r6, [lr], #4
   54152:	f840 6f04 	str.w	r6, [r0, #4]!
   54156:	3a01      	subs	r2, #1
   54158:	1c56      	adds	r6, r2, #1
   5415a:	d1f8      	bne.n	5414e <_Unwind_VRS_Pop+0x15a>
   5415c:	eb01 008c 	add.w	r0, r1, ip, lsl #2
   54160:	2f00      	cmp	r7, #0
   54162:	d0ce      	beq.n	54102 <_Unwind_VRS_Pop+0x10e>
   54164:	2c10      	cmp	r4, #16
   54166:	4622      	mov	r2, r4
   54168:	a944      	add	r1, sp, #272	; 0x110
   5416a:	bf38      	it	cc
   5416c:	2210      	movcc	r2, #16
   5416e:	eb01 02c2 	add.w	r2, r1, r2, lsl #3
   54172:	f5a2 72c4 	sub.w	r2, r2, #392	; 0x188
   54176:	4601      	mov	r1, r0
   54178:	0078      	lsls	r0, r7, #1
   5417a:	3a04      	subs	r2, #4
   5417c:	eb01 0080 	add.w	r0, r1, r0, lsl #2
   54180:	f851 6b04 	ldr.w	r6, [r1], #4
   54184:	f842 6f04 	str.w	r6, [r2, #4]!
   54188:	4281      	cmp	r1, r0
   5418a:	d1f9      	bne.n	54180 <_Unwind_VRS_Pop+0x18c>
   5418c:	e7b9      	b.n	54102 <_Unwind_VRS_Pop+0x10e>
   5418e:	2f10      	cmp	r7, #16
   54190:	d942      	bls.n	54218 <_Unwind_VRS_Pop+0x224>
   54192:	682a      	ldr	r2, [r5, #0]
   54194:	07d0      	lsls	r0, r2, #31
   54196:	f1a7 0710 	sub.w	r7, r7, #16
   5419a:	4611      	mov	r1, r2
   5419c:	d510      	bpl.n	541c0 <_Unwind_VRS_Pop+0x1cc>
   5419e:	f021 0201 	bic.w	r2, r1, #1
   541a2:	2b05      	cmp	r3, #5
   541a4:	602a      	str	r2, [r5, #0]
   541a6:	9301      	str	r3, [sp, #4]
   541a8:	4628      	mov	r0, r5
   541aa:	d05b      	beq.n	54264 <_Unwind_VRS_Pop+0x270>
   541ac:	f021 0103 	bic.w	r1, r1, #3
   541b0:	f840 1b48 	str.w	r1, [r0], #72
   541b4:	f000 f882 	bl	542bc <__gnu_Unwind_Save_VFP>
   541b8:	9b01      	ldr	r3, [sp, #4]
   541ba:	2f00      	cmp	r7, #0
   541bc:	d04a      	beq.n	54254 <_Unwind_VRS_Pop+0x260>
   541be:	682a      	ldr	r2, [r5, #0]
   541c0:	0751      	lsls	r1, r2, #29
   541c2:	d45b      	bmi.n	5427c <_Unwind_VRS_Pop+0x288>
   541c4:	2b01      	cmp	r3, #1
   541c6:	d063      	beq.n	54290 <_Unwind_VRS_Pop+0x29c>
   541c8:	2c0f      	cmp	r4, #15
   541ca:	d804      	bhi.n	541d6 <_Unwind_VRS_Pop+0x1e2>
   541cc:	a822      	add	r0, sp, #136	; 0x88
   541ce:	9301      	str	r3, [sp, #4]
   541d0:	f000 f87c 	bl	542cc <__gnu_Unwind_Save_VFP_D>
   541d4:	9b01      	ldr	r3, [sp, #4]
   541d6:	2f00      	cmp	r7, #0
   541d8:	d0ab      	beq.n	54132 <_Unwind_VRS_Pop+0x13e>
   541da:	a802      	add	r0, sp, #8
   541dc:	9301      	str	r3, [sp, #4]
   541de:	f000 f87d 	bl	542dc <__gnu_Unwind_Save_VFP_D_16_to_31>
   541e2:	9b01      	ldr	r3, [sp, #4]
   541e4:	6ba9      	ldr	r1, [r5, #56]	; 0x38
   541e6:	f1c4 0210 	rsb	r2, r4, #16
   541ea:	2a00      	cmp	r2, #0
   541ec:	dca6      	bgt.n	5413c <_Unwind_VRS_Pop+0x148>
   541ee:	2c10      	cmp	r4, #16
   541f0:	4622      	mov	r2, r4
   541f2:	a844      	add	r0, sp, #272	; 0x110
   541f4:	bf38      	it	cc
   541f6:	2210      	movcc	r2, #16
   541f8:	eb00 02c2 	add.w	r2, r0, r2, lsl #3
   541fc:	f5a2 72c4 	sub.w	r2, r2, #392	; 0x188
   54200:	0078      	lsls	r0, r7, #1
   54202:	e7ba      	b.n	5417a <_Unwind_VRS_Pop+0x186>
   54204:	f023 0310 	bic.w	r3, r3, #16
   54208:	602b      	str	r3, [r5, #0]
   5420a:	f505 70e8 	add.w	r0, r5, #464	; 0x1d0
   5420e:	9201      	str	r2, [sp, #4]
   54210:	f000 f8b6 	bl	54380 <__gnu_Unwind_Save_WMMXC>
   54214:	9a01      	ldr	r2, [sp, #4]
   54216:	e70a      	b.n	5402e <_Unwind_VRS_Pop+0x3a>
   54218:	6829      	ldr	r1, [r5, #0]
   5421a:	07c8      	lsls	r0, r1, #31
   5421c:	d51d      	bpl.n	5425a <_Unwind_VRS_Pop+0x266>
   5421e:	f021 0201 	bic.w	r2, r1, #1
   54222:	4628      	mov	r0, r5
   54224:	f042 0202 	orr.w	r2, r2, #2
   54228:	f840 2b48 	str.w	r2, [r0], #72
   5422c:	9301      	str	r3, [sp, #4]
   5422e:	2700      	movs	r7, #0
   54230:	f000 f84c 	bl	542cc <__gnu_Unwind_Save_VFP_D>
   54234:	9b01      	ldr	r3, [sp, #4]
   54236:	e7c9      	b.n	541cc <_Unwind_VRS_Pop+0x1d8>
   54238:	3004      	adds	r0, #4
   5423a:	63a8      	str	r0, [r5, #56]	; 0x38
   5423c:	a822      	add	r0, sp, #136	; 0x88
   5423e:	f000 f839 	bl	542b4 <__gnu_Unwind_Restore_VFP>
   54242:	e76b      	b.n	5411c <_Unwind_VRS_Pop+0x128>
   54244:	f023 0308 	bic.w	r3, r3, #8
   54248:	602b      	str	r3, [r5, #0]
   5424a:	f505 70a8 	add.w	r0, r5, #336	; 0x150
   5424e:	f000 f86b 	bl	54328 <__gnu_Unwind_Save_WMMXD>
   54252:	e711      	b.n	54078 <_Unwind_VRS_Pop+0x84>
   54254:	2b01      	cmp	r3, #1
   54256:	f43f af4c 	beq.w	540f2 <_Unwind_VRS_Pop+0xfe>
   5425a:	2c0f      	cmp	r4, #15
   5425c:	bf98      	it	ls
   5425e:	2700      	movls	r7, #0
   54260:	d9b4      	bls.n	541cc <_Unwind_VRS_Pop+0x1d8>
   54262:	e766      	b.n	54132 <_Unwind_VRS_Pop+0x13e>
   54264:	f042 0202 	orr.w	r2, r2, #2
   54268:	f840 2b48 	str.w	r2, [r0], #72
   5426c:	f000 f82e 	bl	542cc <__gnu_Unwind_Save_VFP_D>
   54270:	9b01      	ldr	r3, [sp, #4]
   54272:	2f00      	cmp	r7, #0
   54274:	d0aa      	beq.n	541cc <_Unwind_VRS_Pop+0x1d8>
   54276:	682a      	ldr	r2, [r5, #0]
   54278:	0751      	lsls	r1, r2, #29
   5427a:	d5a5      	bpl.n	541c8 <_Unwind_VRS_Pop+0x1d4>
   5427c:	4628      	mov	r0, r5
   5427e:	f022 0204 	bic.w	r2, r2, #4
   54282:	f840 2bd0 	str.w	r2, [r0], #208
   54286:	9301      	str	r3, [sp, #4]
   54288:	f000 f828 	bl	542dc <__gnu_Unwind_Save_VFP_D_16_to_31>
   5428c:	9b01      	ldr	r3, [sp, #4]
   5428e:	e799      	b.n	541c4 <_Unwind_VRS_Pop+0x1d0>
   54290:	a822      	add	r0, sp, #136	; 0x88
   54292:	9301      	str	r3, [sp, #4]
   54294:	f000 f812 	bl	542bc <__gnu_Unwind_Save_VFP>
   54298:	9b01      	ldr	r3, [sp, #4]
   5429a:	e7a3      	b.n	541e4 <_Unwind_VRS_Pop+0x1f0>

0005429c <__restore_core_regs>:
   5429c:	f100 0134 	add.w	r1, r0, #52	; 0x34
   542a0:	e891 0038 	ldmia.w	r1, {r3, r4, r5}
   542a4:	469c      	mov	ip, r3
   542a6:	46a6      	mov	lr, r4
   542a8:	f84c 5d04 	str.w	r5, [ip, #-4]!
   542ac:	e890 0fff 	ldmia.w	r0, {r0, r1, r2, r3, r4, r5, r6, r7, r8, r9, sl, fp}
   542b0:	46e5      	mov	sp, ip
   542b2:	bd00      	pop	{pc}

000542b4 <__gnu_Unwind_Restore_VFP>:
   542b4:	ec90 0b21 	fldmiax	r0, {d0-d15}	;@ Deprecated
   542b8:	4770      	bx	lr
   542ba:	bf00      	nop

000542bc <__gnu_Unwind_Save_VFP>:
   542bc:	ec80 0b21 	fstmiax	r0, {d0-d15}	;@ Deprecated
   542c0:	4770      	bx	lr
   542c2:	bf00      	nop

000542c4 <__gnu_Unwind_Restore_VFP_D>:
   542c4:	ec90 0b20 	vldmia	r0, {d0-d15}
   542c8:	4770      	bx	lr
   542ca:	bf00      	nop

000542cc <__gnu_Unwind_Save_VFP_D>:
   542cc:	ec80 0b20 	vstmia	r0, {d0-d15}
   542d0:	4770      	bx	lr
   542d2:	bf00      	nop

000542d4 <__gnu_Unwind_Restore_VFP_D_16_to_31>:
   542d4:	ecd0 0b20 	vldmia	r0, {d16-d31}
   542d8:	4770      	bx	lr
   542da:	bf00      	nop

000542dc <__gnu_Unwind_Save_VFP_D_16_to_31>:
   542dc:	ecc0 0b20 	vstmia	r0, {d16-d31}
   542e0:	4770      	bx	lr
   542e2:	bf00      	nop

000542e4 <__gnu_Unwind_Restore_WMMXD>:
   542e4:	ecf0 0102 	ldfe	f0, [r0], #8
   542e8:	ecf0 1102 	ldfe	f1, [r0], #8
   542ec:	ecf0 2102 	ldfe	f2, [r0], #8
   542f0:	ecf0 3102 	ldfe	f3, [r0], #8
   542f4:	ecf0 4102 	ldfe	f4, [r0], #8
   542f8:	ecf0 5102 	ldfe	f5, [r0], #8
   542fc:	ecf0 6102 	ldfe	f6, [r0], #8
   54300:	ecf0 7102 	ldfe	f7, [r0], #8
   54304:	ecf0 8102 	ldfp	f0, [r0], #8
   54308:	ecf0 9102 	ldfp	f1, [r0], #8
   5430c:	ecf0 a102 	ldfp	f2, [r0], #8
   54310:	ecf0 b102 	ldfp	f3, [r0], #8
   54314:	ecf0 c102 	ldfp	f4, [r0], #8
   54318:	ecf0 d102 	ldfp	f5, [r0], #8
   5431c:	ecf0 e102 	ldfp	f6, [r0], #8
   54320:	ecf0 f102 	ldfp	f7, [r0], #8
   54324:	4770      	bx	lr
   54326:	bf00      	nop

00054328 <__gnu_Unwind_Save_WMMXD>:
   54328:	ece0 0102 	stfe	f0, [r0], #8
   5432c:	ece0 1102 	stfe	f1, [r0], #8
   54330:	ece0 2102 	stfe	f2, [r0], #8
   54334:	ece0 3102 	stfe	f3, [r0], #8
   54338:	ece0 4102 	stfe	f4, [r0], #8
   5433c:	ece0 5102 	stfe	f5, [r0], #8
   54340:	ece0 6102 	stfe	f6, [r0], #8
   54344:	ece0 7102 	stfe	f7, [r0], #8
   54348:	ece0 8102 	stfp	f0, [r0], #8
   5434c:	ece0 9102 	stfp	f1, [r0], #8
   54350:	ece0 a102 	stfp	f2, [r0], #8
   54354:	ece0 b102 	stfp	f3, [r0], #8
   54358:	ece0 c102 	stfp	f4, [r0], #8
   5435c:	ece0 d102 	stfp	f5, [r0], #8
   54360:	ece0 e102 	stfp	f6, [r0], #8
   54364:	ece0 f102 	stfp	f7, [r0], #8
   54368:	4770      	bx	lr
   5436a:	bf00      	nop

0005436c <__gnu_Unwind_Restore_WMMXC>:
   5436c:	fcb0 8101 	ldc2	1, cr8, [r0], #4
   54370:	fcb0 9101 	ldc2	1, cr9, [r0], #4
   54374:	fcb0 a101 	ldc2	1, cr10, [r0], #4
   54378:	fcb0 b101 	ldc2	1, cr11, [r0], #4
   5437c:	4770      	bx	lr
   5437e:	bf00      	nop

00054380 <__gnu_Unwind_Save_WMMXC>:
   54380:	fca0 8101 	stc2	1, cr8, [r0], #4
   54384:	fca0 9101 	stc2	1, cr9, [r0], #4
   54388:	fca0 a101 	stc2	1, cr10, [r0], #4
   5438c:	fca0 b101 	stc2	1, cr11, [r0], #4
   54390:	4770      	bx	lr
   54392:	bf00      	nop

00054394 <_Unwind_RaiseException>:
   54394:	46ec      	mov	ip, sp
   54396:	b500      	push	{lr}
   54398:	e92d 5000 	stmdb	sp!, {ip, lr}
   5439c:	e92d 1fff 	stmdb	sp!, {r0, r1, r2, r3, r4, r5, r6, r7, r8, r9, sl, fp, ip}
   543a0:	f04f 0300 	mov.w	r3, #0
   543a4:	e92d 000c 	stmdb	sp!, {r2, r3}
   543a8:	a901      	add	r1, sp, #4
   543aa:	f7ff fbbf 	bl	53b2c <__gnu_Unwind_RaiseException>
   543ae:	f8dd e040 	ldr.w	lr, [sp, #64]	; 0x40
   543b2:	b012      	add	sp, #72	; 0x48
   543b4:	4770      	bx	lr
   543b6:	bf00      	nop

000543b8 <_Unwind_Resume>:
   543b8:	46ec      	mov	ip, sp
   543ba:	b500      	push	{lr}
   543bc:	e92d 5000 	stmdb	sp!, {ip, lr}
   543c0:	e92d 1fff 	stmdb	sp!, {r0, r1, r2, r3, r4, r5, r6, r7, r8, r9, sl, fp, ip}
   543c4:	f04f 0300 	mov.w	r3, #0
   543c8:	e92d 000c 	stmdb	sp!, {r2, r3}
   543cc:	a901      	add	r1, sp, #4
   543ce:	f7ff fbe7 	bl	53ba0 <__gnu_Unwind_Resume>
   543d2:	f8dd e040 	ldr.w	lr, [sp, #64]	; 0x40
   543d6:	b012      	add	sp, #72	; 0x48
   543d8:	4770      	bx	lr
   543da:	bf00      	nop

000543dc <_Unwind_Resume_or_Rethrow>:
   543dc:	46ec      	mov	ip, sp
   543de:	b500      	push	{lr}
   543e0:	e92d 5000 	stmdb	sp!, {ip, lr}
   543e4:	e92d 1fff 	stmdb	sp!, {r0, r1, r2, r3, r4, r5, r6, r7, r8, r9, sl, fp, ip}
   543e8:	f04f 0300 	mov.w	r3, #0
   543ec:	e92d 000c 	stmdb	sp!, {r2, r3}
   543f0:	a901      	add	r1, sp, #4
   543f2:	f7ff fbf7 	bl	53be4 <__gnu_Unwind_Resume_or_Rethrow>
   543f6:	f8dd e040 	ldr.w	lr, [sp, #64]	; 0x40
   543fa:	b012      	add	sp, #72	; 0x48
   543fc:	4770      	bx	lr
   543fe:	bf00      	nop

00054400 <_Unwind_ForcedUnwind>:
   54400:	46ec      	mov	ip, sp
   54402:	b500      	push	{lr}
   54404:	e92d 5000 	stmdb	sp!, {ip, lr}
   54408:	e92d 1fff 	stmdb	sp!, {r0, r1, r2, r3, r4, r5, r6, r7, r8, r9, sl, fp, ip}
   5440c:	f04f 0300 	mov.w	r3, #0
   54410:	e92d 000c 	stmdb	sp!, {r2, r3}
   54414:	ab01      	add	r3, sp, #4
   54416:	f7ff fbb9 	bl	53b8c <__gnu_Unwind_ForcedUnwind>
   5441a:	f8dd e040 	ldr.w	lr, [sp, #64]	; 0x40
   5441e:	b012      	add	sp, #72	; 0x48
   54420:	4770      	bx	lr
   54422:	bf00      	nop

00054424 <_Unwind_Backtrace>:
   54424:	46ec      	mov	ip, sp
   54426:	b500      	push	{lr}
   54428:	e92d 5000 	stmdb	sp!, {ip, lr}
   5442c:	e92d 1fff 	stmdb	sp!, {r0, r1, r2, r3, r4, r5, r6, r7, r8, r9, sl, fp, ip}
   54430:	f04f 0300 	mov.w	r3, #0
   54434:	e92d 000c 	stmdb	sp!, {r2, r3}
   54438:	aa01      	add	r2, sp, #4
   5443a:	f7ff fc33 	bl	53ca4 <__gnu_Unwind_Backtrace>
   5443e:	f8dd e040 	ldr.w	lr, [sp, #64]	; 0x40
   54442:	b012      	add	sp, #72	; 0x48
   54444:	4770      	bx	lr
   54446:	bf00      	nop

00054448 <next_unwind_byte>:
   54448:	7a03      	ldrb	r3, [r0, #8]
   5444a:	b91b      	cbnz	r3, 54454 <next_unwind_byte+0xc>
   5444c:	7a43      	ldrb	r3, [r0, #9]
   5444e:	b943      	cbnz	r3, 54462 <next_unwind_byte+0x1a>
   54450:	20b0      	movs	r0, #176	; 0xb0
   54452:	4770      	bx	lr
   54454:	1e5a      	subs	r2, r3, #1
   54456:	6803      	ldr	r3, [r0, #0]
   54458:	7202      	strb	r2, [r0, #8]
   5445a:	021a      	lsls	r2, r3, #8
   5445c:	6002      	str	r2, [r0, #0]
   5445e:	0e18      	lsrs	r0, r3, #24
   54460:	4770      	bx	lr
   54462:	6842      	ldr	r2, [r0, #4]
   54464:	3b01      	subs	r3, #1
   54466:	b410      	push	{r4}
   54468:	7243      	strb	r3, [r0, #9]
   5446a:	6813      	ldr	r3, [r2, #0]
   5446c:	2103      	movs	r1, #3
   5446e:	1d14      	adds	r4, r2, #4
   54470:	7201      	strb	r1, [r0, #8]
   54472:	021a      	lsls	r2, r3, #8
   54474:	6044      	str	r4, [r0, #4]
   54476:	6002      	str	r2, [r0, #0]
   54478:	f85d 4b04 	ldr.w	r4, [sp], #4
   5447c:	0e18      	lsrs	r0, r3, #24
   5447e:	4770      	bx	lr

00054480 <_Unwind_GetGR.constprop.0>:
   54480:	b500      	push	{lr}
   54482:	b085      	sub	sp, #20
   54484:	ab03      	add	r3, sp, #12
   54486:	2100      	movs	r1, #0
   54488:	9300      	str	r3, [sp, #0]
   5448a:	220c      	movs	r2, #12
   5448c:	460b      	mov	r3, r1
   5448e:	f7ff fbb9 	bl	53c04 <_Unwind_VRS_Get>
   54492:	9803      	ldr	r0, [sp, #12]
   54494:	b005      	add	sp, #20
   54496:	f85d fb04 	ldr.w	pc, [sp], #4
   5449a:	bf00      	nop

0005449c <unwind_UCB_from_context>:
   5449c:	e7f0      	b.n	54480 <_Unwind_GetGR.constprop.0>
   5449e:	bf00      	nop

000544a0 <__gnu_unwind_execute>:
   544a0:	e92d 43f0 	stmdb	sp!, {r4, r5, r6, r7, r8, r9, lr}
   544a4:	4606      	mov	r6, r0
   544a6:	b085      	sub	sp, #20
   544a8:	460d      	mov	r5, r1
   544aa:	f04f 0800 	mov.w	r8, #0
   544ae:	4628      	mov	r0, r5
   544b0:	f7ff ffca 	bl	54448 <next_unwind_byte>
   544b4:	28b0      	cmp	r0, #176	; 0xb0
   544b6:	4604      	mov	r4, r0
   544b8:	f000 80b5 	beq.w	54626 <__gnu_unwind_execute+0x186>
   544bc:	f020 017f 	bic.w	r1, r0, #127	; 0x7f
   544c0:	f011 01ff 	ands.w	r1, r1, #255	; 0xff
   544c4:	d020      	beq.n	54508 <__gnu_unwind_execute+0x68>
   544c6:	f000 03f0 	and.w	r3, r0, #240	; 0xf0
   544ca:	2b80      	cmp	r3, #128	; 0x80
   544cc:	d07a      	beq.n	545c4 <__gnu_unwind_execute+0x124>
   544ce:	2b90      	cmp	r3, #144	; 0x90
   544d0:	d036      	beq.n	54540 <__gnu_unwind_execute+0xa0>
   544d2:	2ba0      	cmp	r3, #160	; 0xa0
   544d4:	d049      	beq.n	5456a <__gnu_unwind_execute+0xca>
   544d6:	2bb0      	cmp	r3, #176	; 0xb0
   544d8:	d05c      	beq.n	54594 <__gnu_unwind_execute+0xf4>
   544da:	2bc0      	cmp	r3, #192	; 0xc0
   544dc:	f000 8089 	beq.w	545f2 <__gnu_unwind_execute+0x152>
   544e0:	f000 03f8 	and.w	r3, r0, #248	; 0xf8
   544e4:	2bd0      	cmp	r3, #208	; 0xd0
   544e6:	d10b      	bne.n	54500 <__gnu_unwind_execute+0x60>
   544e8:	f000 0207 	and.w	r2, r0, #7
   544ec:	3201      	adds	r2, #1
   544ee:	f442 2200 	orr.w	r2, r2, #524288	; 0x80000
   544f2:	4630      	mov	r0, r6
   544f4:	2101      	movs	r1, #1
   544f6:	2305      	movs	r3, #5
   544f8:	f7ff fd7c 	bl	53ff4 <_Unwind_VRS_Pop>
   544fc:	2800      	cmp	r0, #0
   544fe:	d0d6      	beq.n	544ae <__gnu_unwind_execute+0xe>
   54500:	2009      	movs	r0, #9
   54502:	b005      	add	sp, #20
   54504:	e8bd 83f0 	ldmia.w	sp!, {r4, r5, r6, r7, r8, r9, pc}
   54508:	f10d 090c 	add.w	r9, sp, #12
   5450c:	460b      	mov	r3, r1
   5450e:	0087      	lsls	r7, r0, #2
   54510:	f8cd 9000 	str.w	r9, [sp]
   54514:	4630      	mov	r0, r6
   54516:	220d      	movs	r2, #13
   54518:	f7ff fb74 	bl	53c04 <_Unwind_VRS_Get>
   5451c:	b2ff      	uxtb	r7, r7
   5451e:	9b03      	ldr	r3, [sp, #12]
   54520:	f8cd 9000 	str.w	r9, [sp]
   54524:	3704      	adds	r7, #4
   54526:	0660      	lsls	r0, r4, #25
   54528:	f04f 0100 	mov.w	r1, #0
   5452c:	bf4c      	ite	mi
   5452e:	1bdf      	submi	r7, r3, r7
   54530:	18ff      	addpl	r7, r7, r3
   54532:	4630      	mov	r0, r6
   54534:	460b      	mov	r3, r1
   54536:	220d      	movs	r2, #13
   54538:	9703      	str	r7, [sp, #12]
   5453a:	f7ff fb8b 	bl	53c54 <_Unwind_VRS_Set>
   5453e:	e7b6      	b.n	544ae <__gnu_unwind_execute+0xe>
   54540:	f000 030d 	and.w	r3, r0, #13
   54544:	2b0d      	cmp	r3, #13
   54546:	d0db      	beq.n	54500 <__gnu_unwind_execute+0x60>
   54548:	af03      	add	r7, sp, #12
   5454a:	2100      	movs	r1, #0
   5454c:	f000 020f 	and.w	r2, r0, #15
   54550:	460b      	mov	r3, r1
   54552:	9700      	str	r7, [sp, #0]
   54554:	4630      	mov	r0, r6
   54556:	f7ff fb55 	bl	53c04 <_Unwind_VRS_Get>
   5455a:	2100      	movs	r1, #0
   5455c:	9700      	str	r7, [sp, #0]
   5455e:	460b      	mov	r3, r1
   54560:	4630      	mov	r0, r6
   54562:	220d      	movs	r2, #13
   54564:	f7ff fb76 	bl	53c54 <_Unwind_VRS_Set>
   54568:	e7a1      	b.n	544ae <__gnu_unwind_execute+0xe>
   5456a:	43c3      	mvns	r3, r0
   5456c:	f003 0307 	and.w	r3, r3, #7
   54570:	f44f 627f 	mov.w	r2, #4080	; 0xff0
   54574:	411a      	asrs	r2, r3
   54576:	0701      	lsls	r1, r0, #28
   54578:	f402 627f 	and.w	r2, r2, #4080	; 0xff0
   5457c:	f04f 0100 	mov.w	r1, #0
   54580:	bf48      	it	mi
   54582:	f442 4280 	orrmi.w	r2, r2, #16384	; 0x4000
   54586:	460b      	mov	r3, r1
   54588:	4630      	mov	r0, r6
   5458a:	f7ff fd33 	bl	53ff4 <_Unwind_VRS_Pop>
   5458e:	2800      	cmp	r0, #0
   54590:	d1b6      	bne.n	54500 <__gnu_unwind_execute+0x60>
   54592:	e78c      	b.n	544ae <__gnu_unwind_execute+0xe>
   54594:	28b1      	cmp	r0, #177	; 0xb1
   54596:	d04c      	beq.n	54632 <__gnu_unwind_execute+0x192>
   54598:	28b2      	cmp	r0, #178	; 0xb2
   5459a:	d05d      	beq.n	54658 <__gnu_unwind_execute+0x1b8>
   5459c:	28b3      	cmp	r0, #179	; 0xb3
   5459e:	f000 808a 	beq.w	546b6 <__gnu_unwind_execute+0x216>
   545a2:	f000 03fc 	and.w	r3, r0, #252	; 0xfc
   545a6:	2bb4      	cmp	r3, #180	; 0xb4
   545a8:	d0aa      	beq.n	54500 <__gnu_unwind_execute+0x60>
   545aa:	f000 0207 	and.w	r2, r0, #7
   545ae:	3201      	adds	r2, #1
   545b0:	2101      	movs	r1, #1
   545b2:	f442 2200 	orr.w	r2, r2, #524288	; 0x80000
   545b6:	460b      	mov	r3, r1
   545b8:	4630      	mov	r0, r6
   545ba:	f7ff fd1b 	bl	53ff4 <_Unwind_VRS_Pop>
   545be:	2800      	cmp	r0, #0
   545c0:	d19e      	bne.n	54500 <__gnu_unwind_execute+0x60>
   545c2:	e774      	b.n	544ae <__gnu_unwind_execute+0xe>
   545c4:	4628      	mov	r0, r5
   545c6:	f7ff ff3f 	bl	54448 <next_unwind_byte>
   545ca:	0224      	lsls	r4, r4, #8
   545cc:	4320      	orrs	r0, r4
   545ce:	f5b0 4f00 	cmp.w	r0, #32768	; 0x8000
   545d2:	d095      	beq.n	54500 <__gnu_unwind_execute+0x60>
   545d4:	0104      	lsls	r4, r0, #4
   545d6:	2100      	movs	r1, #0
   545d8:	b2a2      	uxth	r2, r4
   545da:	460b      	mov	r3, r1
   545dc:	4630      	mov	r0, r6
   545de:	f7ff fd09 	bl	53ff4 <_Unwind_VRS_Pop>
   545e2:	2800      	cmp	r0, #0
   545e4:	d18c      	bne.n	54500 <__gnu_unwind_execute+0x60>
   545e6:	f414 4f00 	tst.w	r4, #32768	; 0x8000
   545ea:	bf18      	it	ne
   545ec:	f04f 0801 	movne.w	r8, #1
   545f0:	e75d      	b.n	544ae <__gnu_unwind_execute+0xe>
   545f2:	28c6      	cmp	r0, #198	; 0xc6
   545f4:	d072      	beq.n	546dc <__gnu_unwind_execute+0x23c>
   545f6:	28c7      	cmp	r0, #199	; 0xc7
   545f8:	d07a      	beq.n	546f0 <__gnu_unwind_execute+0x250>
   545fa:	f000 03f8 	and.w	r3, r0, #248	; 0xf8
   545fe:	2bc0      	cmp	r3, #192	; 0xc0
   54600:	f000 8089 	beq.w	54716 <__gnu_unwind_execute+0x276>
   54604:	28c8      	cmp	r0, #200	; 0xc8
   54606:	f000 80a5 	beq.w	54754 <__gnu_unwind_execute+0x2b4>
   5460a:	28c9      	cmp	r0, #201	; 0xc9
   5460c:	f47f af78 	bne.w	54500 <__gnu_unwind_execute+0x60>
   54610:	4628      	mov	r0, r5
   54612:	f7ff ff19 	bl	54448 <next_unwind_byte>
   54616:	f000 020f 	and.w	r2, r0, #15
   5461a:	3201      	adds	r2, #1
   5461c:	f000 00f0 	and.w	r0, r0, #240	; 0xf0
   54620:	ea42 3200 	orr.w	r2, r2, r0, lsl #12
   54624:	e765      	b.n	544f2 <__gnu_unwind_execute+0x52>
   54626:	f1b8 0f00 	cmp.w	r8, #0
   5462a:	f000 8082 	beq.w	54732 <__gnu_unwind_execute+0x292>
   5462e:	2000      	movs	r0, #0
   54630:	e767      	b.n	54502 <__gnu_unwind_execute+0x62>
   54632:	4628      	mov	r0, r5
   54634:	f7ff ff08 	bl	54448 <next_unwind_byte>
   54638:	4602      	mov	r2, r0
   5463a:	2800      	cmp	r0, #0
   5463c:	f43f af60 	beq.w	54500 <__gnu_unwind_execute+0x60>
   54640:	f010 01f0 	ands.w	r1, r0, #240	; 0xf0
   54644:	f47f af5c 	bne.w	54500 <__gnu_unwind_execute+0x60>
   54648:	4630      	mov	r0, r6
   5464a:	460b      	mov	r3, r1
   5464c:	f7ff fcd2 	bl	53ff4 <_Unwind_VRS_Pop>
   54650:	2800      	cmp	r0, #0
   54652:	f47f af55 	bne.w	54500 <__gnu_unwind_execute+0x60>
   54656:	e72a      	b.n	544ae <__gnu_unwind_execute+0xe>
   54658:	2100      	movs	r1, #0
   5465a:	f10d 090c 	add.w	r9, sp, #12
   5465e:	220d      	movs	r2, #13
   54660:	460b      	mov	r3, r1
   54662:	f8cd 9000 	str.w	r9, [sp]
   54666:	4630      	mov	r0, r6
   54668:	f7ff facc 	bl	53c04 <_Unwind_VRS_Get>
   5466c:	4628      	mov	r0, r5
   5466e:	f7ff feeb 	bl	54448 <next_unwind_byte>
   54672:	0602      	lsls	r2, r0, #24
   54674:	f04f 0402 	mov.w	r4, #2
   54678:	d50c      	bpl.n	54694 <__gnu_unwind_execute+0x1f4>
   5467a:	9b03      	ldr	r3, [sp, #12]
   5467c:	f000 007f 	and.w	r0, r0, #127	; 0x7f
   54680:	40a0      	lsls	r0, r4
   54682:	4403      	add	r3, r0
   54684:	4628      	mov	r0, r5
   54686:	9303      	str	r3, [sp, #12]
   54688:	f7ff fede 	bl	54448 <next_unwind_byte>
   5468c:	0603      	lsls	r3, r0, #24
   5468e:	f104 0407 	add.w	r4, r4, #7
   54692:	d4f2      	bmi.n	5467a <__gnu_unwind_execute+0x1da>
   54694:	9b03      	ldr	r3, [sp, #12]
   54696:	f8cd 9000 	str.w	r9, [sp]
   5469a:	f000 007f 	and.w	r0, r0, #127	; 0x7f
   5469e:	40a0      	lsls	r0, r4
   546a0:	f503 7301 	add.w	r3, r3, #516	; 0x204
   546a4:	2100      	movs	r1, #0
   546a6:	181c      	adds	r4, r3, r0
   546a8:	220d      	movs	r2, #13
   546aa:	460b      	mov	r3, r1
   546ac:	4630      	mov	r0, r6
   546ae:	9403      	str	r4, [sp, #12]
   546b0:	f7ff fad0 	bl	53c54 <_Unwind_VRS_Set>
   546b4:	e6fb      	b.n	544ae <__gnu_unwind_execute+0xe>
   546b6:	4628      	mov	r0, r5
   546b8:	f7ff fec6 	bl	54448 <next_unwind_byte>
   546bc:	f000 020f 	and.w	r2, r0, #15
   546c0:	3201      	adds	r2, #1
   546c2:	f000 00f0 	and.w	r0, r0, #240	; 0xf0
   546c6:	2101      	movs	r1, #1
   546c8:	ea42 3200 	orr.w	r2, r2, r0, lsl #12
   546cc:	460b      	mov	r3, r1
   546ce:	4630      	mov	r0, r6
   546d0:	f7ff fc90 	bl	53ff4 <_Unwind_VRS_Pop>
   546d4:	2800      	cmp	r0, #0
   546d6:	f47f af13 	bne.w	54500 <__gnu_unwind_execute+0x60>
   546da:	e6e8      	b.n	544ae <__gnu_unwind_execute+0xe>
   546dc:	4628      	mov	r0, r5
   546de:	f7ff feb3 	bl	54448 <next_unwind_byte>
   546e2:	f000 020f 	and.w	r2, r0, #15
   546e6:	3201      	adds	r2, #1
   546e8:	f000 00f0 	and.w	r0, r0, #240	; 0xf0
   546ec:	2103      	movs	r1, #3
   546ee:	e7eb      	b.n	546c8 <__gnu_unwind_execute+0x228>
   546f0:	4628      	mov	r0, r5
   546f2:	f7ff fea9 	bl	54448 <next_unwind_byte>
   546f6:	4602      	mov	r2, r0
   546f8:	2800      	cmp	r0, #0
   546fa:	f43f af01 	beq.w	54500 <__gnu_unwind_execute+0x60>
   546fe:	f010 03f0 	ands.w	r3, r0, #240	; 0xf0
   54702:	f47f aefd 	bne.w	54500 <__gnu_unwind_execute+0x60>
   54706:	4630      	mov	r0, r6
   54708:	2104      	movs	r1, #4
   5470a:	f7ff fc73 	bl	53ff4 <_Unwind_VRS_Pop>
   5470e:	2800      	cmp	r0, #0
   54710:	f47f aef6 	bne.w	54500 <__gnu_unwind_execute+0x60>
   54714:	e6cb      	b.n	544ae <__gnu_unwind_execute+0xe>
   54716:	f000 020f 	and.w	r2, r0, #15
   5471a:	3201      	adds	r2, #1
   5471c:	2103      	movs	r1, #3
   5471e:	f442 2220 	orr.w	r2, r2, #655360	; 0xa0000
   54722:	460b      	mov	r3, r1
   54724:	4630      	mov	r0, r6
   54726:	f7ff fc65 	bl	53ff4 <_Unwind_VRS_Pop>
   5472a:	2800      	cmp	r0, #0
   5472c:	f47f aee8 	bne.w	54500 <__gnu_unwind_execute+0x60>
   54730:	e6bd      	b.n	544ae <__gnu_unwind_execute+0xe>
   54732:	ac03      	add	r4, sp, #12
   54734:	4641      	mov	r1, r8
   54736:	220e      	movs	r2, #14
   54738:	4643      	mov	r3, r8
   5473a:	9400      	str	r4, [sp, #0]
   5473c:	4630      	mov	r0, r6
   5473e:	f7ff fa61 	bl	53c04 <_Unwind_VRS_Get>
   54742:	9400      	str	r4, [sp, #0]
   54744:	4630      	mov	r0, r6
   54746:	4641      	mov	r1, r8
   54748:	220f      	movs	r2, #15
   5474a:	4643      	mov	r3, r8
   5474c:	f7ff fa82 	bl	53c54 <_Unwind_VRS_Set>
   54750:	4640      	mov	r0, r8
   54752:	e6d6      	b.n	54502 <__gnu_unwind_execute+0x62>
   54754:	4628      	mov	r0, r5
   54756:	f7ff fe77 	bl	54448 <next_unwind_byte>
   5475a:	f000 02f0 	and.w	r2, r0, #240	; 0xf0
   5475e:	f000 030f 	and.w	r3, r0, #15
   54762:	3210      	adds	r2, #16
   54764:	3301      	adds	r3, #1
   54766:	ea43 3202 	orr.w	r2, r3, r2, lsl #12
   5476a:	e6c2      	b.n	544f2 <__gnu_unwind_execute+0x52>

0005476c <__gnu_unwind_frame>:
   5476c:	b510      	push	{r4, lr}
   5476e:	6cc3      	ldr	r3, [r0, #76]	; 0x4c
   54770:	b084      	sub	sp, #16
   54772:	685a      	ldr	r2, [r3, #4]
   54774:	2003      	movs	r0, #3
   54776:	f88d 000c 	strb.w	r0, [sp, #12]
   5477a:	79dc      	ldrb	r4, [r3, #7]
   5477c:	f88d 400d 	strb.w	r4, [sp, #13]
   54780:	0212      	lsls	r2, r2, #8
   54782:	3308      	adds	r3, #8
   54784:	4608      	mov	r0, r1
   54786:	a901      	add	r1, sp, #4
   54788:	9201      	str	r2, [sp, #4]
   5478a:	9302      	str	r3, [sp, #8]
   5478c:	f7ff fe88 	bl	544a0 <__gnu_unwind_execute>
   54790:	b004      	add	sp, #16
   54792:	bd10      	pop	{r4, pc}

00054794 <_Unwind_GetRegionStart>:
   54794:	b508      	push	{r3, lr}
   54796:	f7ff fe81 	bl	5449c <unwind_UCB_from_context>
   5479a:	6c80      	ldr	r0, [r0, #72]	; 0x48
   5479c:	bd08      	pop	{r3, pc}
   5479e:	bf00      	nop

000547a0 <_Unwind_GetLanguageSpecificData>:
   547a0:	b508      	push	{r3, lr}
   547a2:	f7ff fe7b 	bl	5449c <unwind_UCB_from_context>
   547a6:	6cc3      	ldr	r3, [r0, #76]	; 0x4c
   547a8:	79d8      	ldrb	r0, [r3, #7]
   547aa:	eb03 0080 	add.w	r0, r3, r0, lsl #2
   547ae:	3008      	adds	r0, #8
   547b0:	bd08      	pop	{r3, pc}
   547b2:	bf00      	nop

000547b4 <_Unwind_GetDataRelBase>:
   547b4:	b508      	push	{r3, lr}
   547b6:	f7fb fd1f 	bl	501f8 <abort>
   547ba:	bf00      	nop

000547bc <_Unwind_GetTextRelBase>:
   547bc:	b508      	push	{r3, lr}
   547be:	f7fb fd1b 	bl	501f8 <abort>
   547c2:	bf00      	nop
   547c4:	6c6c6548 	.word	0x6c6c6548
   547c8:	6f77206f 	.word	0x6f77206f
   547cc:	0a646c72 	.word	0x0a646c72
   547d0:	00000000 	.word	0x00000000
   547d4:	000a6968 	.word	0x000a6968
   547d8:	6c6c6568 	.word	0x6c6c6568
   547dc:	6f77206f 	.word	0x6f77206f
   547e0:	00646c72 	.word	0x00646c72
   547e4:	746f6f42 	.word	0x746f6f42
   547e8:	20676e69 	.word	0x20676e69
   547ec:	6c796170 	.word	0x6c796170
   547f0:	2064616f 	.word	0x2064616f
   547f4:	3a302e34 	.word	0x3a302e34
   547f8:	00000000 	.word	0x00000000

000547fc <_aV2C.4735>:
   547fc:	33323130 37363534 42413938 46454443     0123456789ABCDEF
   5480c:	6d726554 6c616e69 00000000              Terminal....

00054818 <__sf_fake_stderr>:
	...

00054838 <__sf_fake_stdout>:
	...

00054858 <__sf_fake_stdin>:
	...

00054878 <_global_impure_ptr>:
   54878:	20005064 00000043 2b302d23 00000020     dP. C...#-0+ ...
   54888:	004c6c68 45676665 00004746 33323130     hlL.efgEFG..0123
   54898:	37363534 42413938 46454443 00000000     456789ABCDEF....
   548a8:	33323130 37363534 62613938 66656463     0123456789abcdef
   548b8:	00000000 81019701 8408b0b0 00000000     ................
   548c8:	8101b108 8400b0b0 00000000 8101b108     ................
   548d8:	8400b0b0 00000000                       ........
